
kernel:     file format elf32-i386


Disassembly of section .text:

00010000 <_start>:
** The entry point. When we get here, we have just entered protected
** mode, so all the segment registers are incorrect except for CS.
*/
begtext:

	cli			/* seems to be reset on entry to p. mode */
   10000:	fa                   	cli    
	movb	$NMI_ENABLE, %al  /* re-enable NMIs (bootstrap */
   10001:	b0 00                	mov    $0x0,%al
	outb	$CMOS_ADDR	  /*   turned them off) */
   10003:	e6 70                	out    %al,$0x70

/*
** Set the data and stack segment registers (code segment register
** was set by the long jump that switched us into protected mode).
*/
	xorl	%eax, %eax	/* clear EAX */
   10005:	31 c0                	xor    %eax,%eax
	movw	$GDT_DATA, %ax	/* GDT entry #3 - data segment */
   10007:	66 b8 18 00          	mov    $0x18,%ax
	movw	%ax, %ds	/* for all four data segment registers */
   1000b:	8e d8                	mov    %eax,%ds
	movw	%ax, %es
   1000d:	8e c0                	mov    %eax,%es
	movw	%ax, %fs
   1000f:	8e e0                	mov    %eax,%fs
	movw	%ax, %gs
   10011:	8e e8                	mov    %eax,%gs

	movw	$GDT_STACK, %ax	/* entry #4 is the stack segment */
   10013:	66 b8 20 00          	mov    $0x20,%ax
	movw	%ax, %ss
   10017:	8e d0                	mov    %eax,%ss

	movl	$TARGET_STACK, %ebp	/* set up the system stack pointer */
   10019:	bd 00 00 01 00       	mov    $0x10000,%ebp
	movl	%ebp, %esp
   1001e:	89 ec                	mov    %ebp,%esp
** defined at their virtual addresses rather than their physical addresses,
** and we haven't enabled paging yet.
*/
	.globl	__bss_start, _end

	movl	$__bss_start, %edi
   10020:	bf 00 e0 01 00       	mov    $0x1e000,%edi

00010025 <clearbss>:
clearbss:
	movl	$0, (%edi)
   10025:	c7 07 00 00 00 00    	movl   $0x0,(%edi)
	addl	$4, %edi
   1002b:	83 c7 04             	add    $0x4,%edi
	cmpl	$_end, %edi
   1002e:	81 ff e4 28 02 00    	cmp    $0x228e4,%edi
	jb	clearbss
   10034:	72 ef                	jb     10025 <clearbss>
*/
	.globl	main

#	movl	$main, %eax
#	call	*%eax
	call	main
   10036:	e8 10 1d 00 00       	call   11d4b <main>
** we treat this as a "return from interrupt" event, and just
** transfer to the code that restores the user context.
*/

	.globl	isr_restore
	jmp	isr_restore
   1003b:	e9 2c 00 00 00       	jmp    1006c <isr_restore>

00010040 <isr_save>:
**	    error code, or 0	saved by the hardware, or the entry macro
**	    saved EIP		saved by the hardware
**	    saved CS		saved by the hardware
**	    saved EFLAGS	saved by the hardware
*/
	pusha			// save E*X, ESP, EBP, ESI, EDI
   10040:	60                   	pusha  
	pushl	%ds		// save segment registers
   10041:	1e                   	push   %ds
	pushl	%es
   10042:	06                   	push   %es
	pushl	%fs
   10043:	0f a0                	push   %fs
	pushl	%gs
   10045:	0f a8                	push   %gs
	pushl	%ss
   10047:	16                   	push   %ss
**
** Note that the saved ESP is the contents before the PUSHA.
**
** Set up parameters for the ISR call.
*/
	movl	CTX_vector(%esp),%eax	// get vector number and error code
   10048:	8b 44 24 34          	mov    0x34(%esp),%eax
	movl	CTX_code(%esp),%ebx
   1004c:	8b 5c 24 38          	mov    0x38(%esp),%ebx

	.globl	current
	.globl	kernel_esp

	// save the context pointer
	movl	current, %edx
   10050:	8b 15 14 20 02 00    	mov    0x22014,%edx
	movl	%esp, PCB_context(%edx)
   10056:	89 22                	mov    %esp,(%edx)
	// NOTE: this is inherently non-reentrant!  If/when the OS
	// is converted from monolithic to something that supports
	// reentrant or interruptable ISRs, this code will need to
	// be changed to support that!

	movl	kernel_esp, %esp
   10058:	8b 25 0c d1 01 00    	mov    0x1d10c,%esp

#
# END MOD FOR 20245
#

	pushl	%ebx		// put them on the top of the stack ...
   1005e:	53                   	push   %ebx
	pushl	%eax		// ... as parameters for the ISR
   1005f:	50                   	push   %eax

/*
** Call the ISR
*/
	movl	isr_table(,%eax,4),%ebx
   10060:	8b 1c 85 e0 24 02 00 	mov    0x224e0(,%eax,4),%ebx
	call	*%ebx
   10067:	ff d3                	call   *%ebx
	addl	$8,%esp		// pop the two parameters
   10069:	83 c4 08             	add    $0x8,%esp

0001006c <isr_restore>:
isr_restore:

#
# MOD FOR 20245
#
	movl	current, %ebx	// return to the user stack
   1006c:	8b 1d 14 20 02 00    	mov    0x22014,%ebx
	movl	PCB_context(%ebx), %esp	// ESP --> context save area
   10072:	8b 23                	mov    (%ebx),%esp
#
# Report system time and PID with context
#
	.globl	system_time

	pushl	PCB_pid(%ebx)
   10074:	ff 73 18             	pushl  0x18(%ebx)
	pushl	system_time
   10077:	ff 35 bc f1 01 00    	pushl  0x1f1bc
	pushl	$fmtall
   1007d:	68 60 a4 01 00       	push   $0x1a460
	pushl	$1
   10082:	6a 01                	push   $0x1
	pushl	$0
   10084:	6a 00                	push   $0x0
	call	cio_printf_at
   10086:	e8 7c 14 00 00       	call   11507 <cio_printf_at>
	addl	$20,%esp
   1008b:	83 c4 14             	add    $0x14,%esp
#endif

/*
** Restore the context.
*/
	popl	%ss		// restore the segment registers
   1008e:	17                   	pop    %ss
	popl	%gs
   1008f:	0f a9                	pop    %gs
	popl	%fs
   10091:	0f a1                	pop    %fs
	popl	%es
   10093:	07                   	pop    %es
	popl	%ds
   10094:	1f                   	pop    %ds
	popa			// restore others
   10095:	61                   	popa   
	addl	$8, %esp	// discard the error code and vector
   10096:	83 c4 08             	add    $0x8,%esp
	iret			// and return
   10099:	cf                   	iret   

0001009a <isr_0x00>:
#endif

/*
** Here we generate the individual stubs for each interrupt.
*/
ISR(0x00);	ISR(0x01);	ISR(0x02);	ISR(0x03);
   1009a:	6a 00                	push   $0x0
   1009c:	6a 00                	push   $0x0
   1009e:	eb a0                	jmp    10040 <isr_save>

000100a0 <isr_0x01>:
   100a0:	6a 00                	push   $0x0
   100a2:	6a 01                	push   $0x1
   100a4:	eb 9a                	jmp    10040 <isr_save>

000100a6 <isr_0x02>:
   100a6:	6a 00                	push   $0x0
   100a8:	6a 02                	push   $0x2
   100aa:	eb 94                	jmp    10040 <isr_save>

000100ac <isr_0x03>:
   100ac:	6a 00                	push   $0x0
   100ae:	6a 03                	push   $0x3
   100b0:	eb 8e                	jmp    10040 <isr_save>

000100b2 <isr_0x04>:
ISR(0x04);	ISR(0x05);	ISR(0x06);	ISR(0x07);
   100b2:	6a 00                	push   $0x0
   100b4:	6a 04                	push   $0x4
   100b6:	eb 88                	jmp    10040 <isr_save>

000100b8 <isr_0x05>:
   100b8:	6a 00                	push   $0x0
   100ba:	6a 05                	push   $0x5
   100bc:	eb 82                	jmp    10040 <isr_save>

000100be <isr_0x06>:
   100be:	6a 00                	push   $0x0
   100c0:	6a 06                	push   $0x6
   100c2:	e9 79 ff ff ff       	jmp    10040 <isr_save>

000100c7 <isr_0x07>:
   100c7:	6a 00                	push   $0x0
   100c9:	6a 07                	push   $0x7
   100cb:	e9 70 ff ff ff       	jmp    10040 <isr_save>

000100d0 <isr_0x08>:
ERR_ISR(0x08);	ISR(0x09);	ERR_ISR(0x0a);	ERR_ISR(0x0b);
   100d0:	6a 08                	push   $0x8
   100d2:	e9 69 ff ff ff       	jmp    10040 <isr_save>

000100d7 <isr_0x09>:
   100d7:	6a 00                	push   $0x0
   100d9:	6a 09                	push   $0x9
   100db:	e9 60 ff ff ff       	jmp    10040 <isr_save>

000100e0 <isr_0x0a>:
   100e0:	6a 0a                	push   $0xa
   100e2:	e9 59 ff ff ff       	jmp    10040 <isr_save>

000100e7 <isr_0x0b>:
   100e7:	6a 0b                	push   $0xb
   100e9:	e9 52 ff ff ff       	jmp    10040 <isr_save>

000100ee <isr_0x0c>:
ERR_ISR(0x0c);	ERR_ISR(0x0d);	ERR_ISR(0x0e);	ISR(0x0f);
   100ee:	6a 0c                	push   $0xc
   100f0:	e9 4b ff ff ff       	jmp    10040 <isr_save>

000100f5 <isr_0x0d>:
   100f5:	6a 0d                	push   $0xd
   100f7:	e9 44 ff ff ff       	jmp    10040 <isr_save>

000100fc <isr_0x0e>:
   100fc:	6a 0e                	push   $0xe
   100fe:	e9 3d ff ff ff       	jmp    10040 <isr_save>

00010103 <isr_0x0f>:
   10103:	6a 00                	push   $0x0
   10105:	6a 0f                	push   $0xf
   10107:	e9 34 ff ff ff       	jmp    10040 <isr_save>

0001010c <isr_0x10>:
ISR(0x10);	ERR_ISR(0x11);	ISR(0x12);	ISR(0x13);
   1010c:	6a 00                	push   $0x0
   1010e:	6a 10                	push   $0x10
   10110:	e9 2b ff ff ff       	jmp    10040 <isr_save>

00010115 <isr_0x11>:
   10115:	6a 11                	push   $0x11
   10117:	e9 24 ff ff ff       	jmp    10040 <isr_save>

0001011c <isr_0x12>:
   1011c:	6a 00                	push   $0x0
   1011e:	6a 12                	push   $0x12
   10120:	e9 1b ff ff ff       	jmp    10040 <isr_save>

00010125 <isr_0x13>:
   10125:	6a 00                	push   $0x0
   10127:	6a 13                	push   $0x13
   10129:	e9 12 ff ff ff       	jmp    10040 <isr_save>

0001012e <isr_0x14>:
ISR(0x14);	ERR_ISR(0x15);	ISR(0x16);	ISR(0x17);
   1012e:	6a 00                	push   $0x0
   10130:	6a 14                	push   $0x14
   10132:	e9 09 ff ff ff       	jmp    10040 <isr_save>

00010137 <isr_0x15>:
   10137:	6a 15                	push   $0x15
   10139:	e9 02 ff ff ff       	jmp    10040 <isr_save>

0001013e <isr_0x16>:
   1013e:	6a 00                	push   $0x0
   10140:	6a 16                	push   $0x16
   10142:	e9 f9 fe ff ff       	jmp    10040 <isr_save>

00010147 <isr_0x17>:
   10147:	6a 00                	push   $0x0
   10149:	6a 17                	push   $0x17
   1014b:	e9 f0 fe ff ff       	jmp    10040 <isr_save>

00010150 <isr_0x18>:
ISR(0x18);	ISR(0x19);	ISR(0x1a);	ISR(0x1b);
   10150:	6a 00                	push   $0x0
   10152:	6a 18                	push   $0x18
   10154:	e9 e7 fe ff ff       	jmp    10040 <isr_save>

00010159 <isr_0x19>:
   10159:	6a 00                	push   $0x0
   1015b:	6a 19                	push   $0x19
   1015d:	e9 de fe ff ff       	jmp    10040 <isr_save>

00010162 <isr_0x1a>:
   10162:	6a 00                	push   $0x0
   10164:	6a 1a                	push   $0x1a
   10166:	e9 d5 fe ff ff       	jmp    10040 <isr_save>

0001016b <isr_0x1b>:
   1016b:	6a 00                	push   $0x0
   1016d:	6a 1b                	push   $0x1b
   1016f:	e9 cc fe ff ff       	jmp    10040 <isr_save>

00010174 <isr_0x1c>:
ISR(0x1c);	ISR(0x1d);	ISR(0x1e);	ISR(0x1f);
   10174:	6a 00                	push   $0x0
   10176:	6a 1c                	push   $0x1c
   10178:	e9 c3 fe ff ff       	jmp    10040 <isr_save>

0001017d <isr_0x1d>:
   1017d:	6a 00                	push   $0x0
   1017f:	6a 1d                	push   $0x1d
   10181:	e9 ba fe ff ff       	jmp    10040 <isr_save>

00010186 <isr_0x1e>:
   10186:	6a 00                	push   $0x0
   10188:	6a 1e                	push   $0x1e
   1018a:	e9 b1 fe ff ff       	jmp    10040 <isr_save>

0001018f <isr_0x1f>:
   1018f:	6a 00                	push   $0x0
   10191:	6a 1f                	push   $0x1f
   10193:	e9 a8 fe ff ff       	jmp    10040 <isr_save>

00010198 <isr_0x20>:
ISR(0x20);	ISR(0x21);	ISR(0x22);	ISR(0x23);
   10198:	6a 00                	push   $0x0
   1019a:	6a 20                	push   $0x20
   1019c:	e9 9f fe ff ff       	jmp    10040 <isr_save>

000101a1 <isr_0x21>:
   101a1:	6a 00                	push   $0x0
   101a3:	6a 21                	push   $0x21
   101a5:	e9 96 fe ff ff       	jmp    10040 <isr_save>

000101aa <isr_0x22>:
   101aa:	6a 00                	push   $0x0
   101ac:	6a 22                	push   $0x22
   101ae:	e9 8d fe ff ff       	jmp    10040 <isr_save>

000101b3 <isr_0x23>:
   101b3:	6a 00                	push   $0x0
   101b5:	6a 23                	push   $0x23
   101b7:	e9 84 fe ff ff       	jmp    10040 <isr_save>

000101bc <isr_0x24>:
ISR(0x24);	ISR(0x25);	ISR(0x26);	ISR(0x27);
   101bc:	6a 00                	push   $0x0
   101be:	6a 24                	push   $0x24
   101c0:	e9 7b fe ff ff       	jmp    10040 <isr_save>

000101c5 <isr_0x25>:
   101c5:	6a 00                	push   $0x0
   101c7:	6a 25                	push   $0x25
   101c9:	e9 72 fe ff ff       	jmp    10040 <isr_save>

000101ce <isr_0x26>:
   101ce:	6a 00                	push   $0x0
   101d0:	6a 26                	push   $0x26
   101d2:	e9 69 fe ff ff       	jmp    10040 <isr_save>

000101d7 <isr_0x27>:
   101d7:	6a 00                	push   $0x0
   101d9:	6a 27                	push   $0x27
   101db:	e9 60 fe ff ff       	jmp    10040 <isr_save>

000101e0 <isr_0x28>:
ISR(0x28);	ISR(0x29);	ISR(0x2a);	ISR(0x2b);
   101e0:	6a 00                	push   $0x0
   101e2:	6a 28                	push   $0x28
   101e4:	e9 57 fe ff ff       	jmp    10040 <isr_save>

000101e9 <isr_0x29>:
   101e9:	6a 00                	push   $0x0
   101eb:	6a 29                	push   $0x29
   101ed:	e9 4e fe ff ff       	jmp    10040 <isr_save>

000101f2 <isr_0x2a>:
   101f2:	6a 00                	push   $0x0
   101f4:	6a 2a                	push   $0x2a
   101f6:	e9 45 fe ff ff       	jmp    10040 <isr_save>

000101fb <isr_0x2b>:
   101fb:	6a 00                	push   $0x0
   101fd:	6a 2b                	push   $0x2b
   101ff:	e9 3c fe ff ff       	jmp    10040 <isr_save>

00010204 <isr_0x2c>:
ISR(0x2c);	ISR(0x2d);	ISR(0x2e);	ISR(0x2f);
   10204:	6a 00                	push   $0x0
   10206:	6a 2c                	push   $0x2c
   10208:	e9 33 fe ff ff       	jmp    10040 <isr_save>

0001020d <isr_0x2d>:
   1020d:	6a 00                	push   $0x0
   1020f:	6a 2d                	push   $0x2d
   10211:	e9 2a fe ff ff       	jmp    10040 <isr_save>

00010216 <isr_0x2e>:
   10216:	6a 00                	push   $0x0
   10218:	6a 2e                	push   $0x2e
   1021a:	e9 21 fe ff ff       	jmp    10040 <isr_save>

0001021f <isr_0x2f>:
   1021f:	6a 00                	push   $0x0
   10221:	6a 2f                	push   $0x2f
   10223:	e9 18 fe ff ff       	jmp    10040 <isr_save>

00010228 <isr_0x30>:
ISR(0x30);	ISR(0x31);	ISR(0x32);	ISR(0x33);
   10228:	6a 00                	push   $0x0
   1022a:	6a 30                	push   $0x30
   1022c:	e9 0f fe ff ff       	jmp    10040 <isr_save>

00010231 <isr_0x31>:
   10231:	6a 00                	push   $0x0
   10233:	6a 31                	push   $0x31
   10235:	e9 06 fe ff ff       	jmp    10040 <isr_save>

0001023a <isr_0x32>:
   1023a:	6a 00                	push   $0x0
   1023c:	6a 32                	push   $0x32
   1023e:	e9 fd fd ff ff       	jmp    10040 <isr_save>

00010243 <isr_0x33>:
   10243:	6a 00                	push   $0x0
   10245:	6a 33                	push   $0x33
   10247:	e9 f4 fd ff ff       	jmp    10040 <isr_save>

0001024c <isr_0x34>:
ISR(0x34);	ISR(0x35);	ISR(0x36);	ISR(0x37);
   1024c:	6a 00                	push   $0x0
   1024e:	6a 34                	push   $0x34
   10250:	e9 eb fd ff ff       	jmp    10040 <isr_save>

00010255 <isr_0x35>:
   10255:	6a 00                	push   $0x0
   10257:	6a 35                	push   $0x35
   10259:	e9 e2 fd ff ff       	jmp    10040 <isr_save>

0001025e <isr_0x36>:
   1025e:	6a 00                	push   $0x0
   10260:	6a 36                	push   $0x36
   10262:	e9 d9 fd ff ff       	jmp    10040 <isr_save>

00010267 <isr_0x37>:
   10267:	6a 00                	push   $0x0
   10269:	6a 37                	push   $0x37
   1026b:	e9 d0 fd ff ff       	jmp    10040 <isr_save>

00010270 <isr_0x38>:
ISR(0x38);	ISR(0x39);	ISR(0x3a);	ISR(0x3b);
   10270:	6a 00                	push   $0x0
   10272:	6a 38                	push   $0x38
   10274:	e9 c7 fd ff ff       	jmp    10040 <isr_save>

00010279 <isr_0x39>:
   10279:	6a 00                	push   $0x0
   1027b:	6a 39                	push   $0x39
   1027d:	e9 be fd ff ff       	jmp    10040 <isr_save>

00010282 <isr_0x3a>:
   10282:	6a 00                	push   $0x0
   10284:	6a 3a                	push   $0x3a
   10286:	e9 b5 fd ff ff       	jmp    10040 <isr_save>

0001028b <isr_0x3b>:
   1028b:	6a 00                	push   $0x0
   1028d:	6a 3b                	push   $0x3b
   1028f:	e9 ac fd ff ff       	jmp    10040 <isr_save>

00010294 <isr_0x3c>:
ISR(0x3c);	ISR(0x3d);	ISR(0x3e);	ISR(0x3f);
   10294:	6a 00                	push   $0x0
   10296:	6a 3c                	push   $0x3c
   10298:	e9 a3 fd ff ff       	jmp    10040 <isr_save>

0001029d <isr_0x3d>:
   1029d:	6a 00                	push   $0x0
   1029f:	6a 3d                	push   $0x3d
   102a1:	e9 9a fd ff ff       	jmp    10040 <isr_save>

000102a6 <isr_0x3e>:
   102a6:	6a 00                	push   $0x0
   102a8:	6a 3e                	push   $0x3e
   102aa:	e9 91 fd ff ff       	jmp    10040 <isr_save>

000102af <isr_0x3f>:
   102af:	6a 00                	push   $0x0
   102b1:	6a 3f                	push   $0x3f
   102b3:	e9 88 fd ff ff       	jmp    10040 <isr_save>

000102b8 <isr_0x40>:
ISR(0x40);	ISR(0x41);	ISR(0x42);	ISR(0x43);
   102b8:	6a 00                	push   $0x0
   102ba:	6a 40                	push   $0x40
   102bc:	e9 7f fd ff ff       	jmp    10040 <isr_save>

000102c1 <isr_0x41>:
   102c1:	6a 00                	push   $0x0
   102c3:	6a 41                	push   $0x41
   102c5:	e9 76 fd ff ff       	jmp    10040 <isr_save>

000102ca <isr_0x42>:
   102ca:	6a 00                	push   $0x0
   102cc:	6a 42                	push   $0x42
   102ce:	e9 6d fd ff ff       	jmp    10040 <isr_save>

000102d3 <isr_0x43>:
   102d3:	6a 00                	push   $0x0
   102d5:	6a 43                	push   $0x43
   102d7:	e9 64 fd ff ff       	jmp    10040 <isr_save>

000102dc <isr_0x44>:
ISR(0x44);	ISR(0x45);	ISR(0x46);	ISR(0x47);
   102dc:	6a 00                	push   $0x0
   102de:	6a 44                	push   $0x44
   102e0:	e9 5b fd ff ff       	jmp    10040 <isr_save>

000102e5 <isr_0x45>:
   102e5:	6a 00                	push   $0x0
   102e7:	6a 45                	push   $0x45
   102e9:	e9 52 fd ff ff       	jmp    10040 <isr_save>

000102ee <isr_0x46>:
   102ee:	6a 00                	push   $0x0
   102f0:	6a 46                	push   $0x46
   102f2:	e9 49 fd ff ff       	jmp    10040 <isr_save>

000102f7 <isr_0x47>:
   102f7:	6a 00                	push   $0x0
   102f9:	6a 47                	push   $0x47
   102fb:	e9 40 fd ff ff       	jmp    10040 <isr_save>

00010300 <isr_0x48>:
ISR(0x48);	ISR(0x49);	ISR(0x4a);	ISR(0x4b);
   10300:	6a 00                	push   $0x0
   10302:	6a 48                	push   $0x48
   10304:	e9 37 fd ff ff       	jmp    10040 <isr_save>

00010309 <isr_0x49>:
   10309:	6a 00                	push   $0x0
   1030b:	6a 49                	push   $0x49
   1030d:	e9 2e fd ff ff       	jmp    10040 <isr_save>

00010312 <isr_0x4a>:
   10312:	6a 00                	push   $0x0
   10314:	6a 4a                	push   $0x4a
   10316:	e9 25 fd ff ff       	jmp    10040 <isr_save>

0001031b <isr_0x4b>:
   1031b:	6a 00                	push   $0x0
   1031d:	6a 4b                	push   $0x4b
   1031f:	e9 1c fd ff ff       	jmp    10040 <isr_save>

00010324 <isr_0x4c>:
ISR(0x4c);	ISR(0x4d);	ISR(0x4e);	ISR(0x4f);
   10324:	6a 00                	push   $0x0
   10326:	6a 4c                	push   $0x4c
   10328:	e9 13 fd ff ff       	jmp    10040 <isr_save>

0001032d <isr_0x4d>:
   1032d:	6a 00                	push   $0x0
   1032f:	6a 4d                	push   $0x4d
   10331:	e9 0a fd ff ff       	jmp    10040 <isr_save>

00010336 <isr_0x4e>:
   10336:	6a 00                	push   $0x0
   10338:	6a 4e                	push   $0x4e
   1033a:	e9 01 fd ff ff       	jmp    10040 <isr_save>

0001033f <isr_0x4f>:
   1033f:	6a 00                	push   $0x0
   10341:	6a 4f                	push   $0x4f
   10343:	e9 f8 fc ff ff       	jmp    10040 <isr_save>

00010348 <isr_0x50>:
ISR(0x50);	ISR(0x51);	ISR(0x52);	ISR(0x53);
   10348:	6a 00                	push   $0x0
   1034a:	6a 50                	push   $0x50
   1034c:	e9 ef fc ff ff       	jmp    10040 <isr_save>

00010351 <isr_0x51>:
   10351:	6a 00                	push   $0x0
   10353:	6a 51                	push   $0x51
   10355:	e9 e6 fc ff ff       	jmp    10040 <isr_save>

0001035a <isr_0x52>:
   1035a:	6a 00                	push   $0x0
   1035c:	6a 52                	push   $0x52
   1035e:	e9 dd fc ff ff       	jmp    10040 <isr_save>

00010363 <isr_0x53>:
   10363:	6a 00                	push   $0x0
   10365:	6a 53                	push   $0x53
   10367:	e9 d4 fc ff ff       	jmp    10040 <isr_save>

0001036c <isr_0x54>:
ISR(0x54);	ISR(0x55);	ISR(0x56);	ISR(0x57);
   1036c:	6a 00                	push   $0x0
   1036e:	6a 54                	push   $0x54
   10370:	e9 cb fc ff ff       	jmp    10040 <isr_save>

00010375 <isr_0x55>:
   10375:	6a 00                	push   $0x0
   10377:	6a 55                	push   $0x55
   10379:	e9 c2 fc ff ff       	jmp    10040 <isr_save>

0001037e <isr_0x56>:
   1037e:	6a 00                	push   $0x0
   10380:	6a 56                	push   $0x56
   10382:	e9 b9 fc ff ff       	jmp    10040 <isr_save>

00010387 <isr_0x57>:
   10387:	6a 00                	push   $0x0
   10389:	6a 57                	push   $0x57
   1038b:	e9 b0 fc ff ff       	jmp    10040 <isr_save>

00010390 <isr_0x58>:
ISR(0x58);	ISR(0x59);	ISR(0x5a);	ISR(0x5b);
   10390:	6a 00                	push   $0x0
   10392:	6a 58                	push   $0x58
   10394:	e9 a7 fc ff ff       	jmp    10040 <isr_save>

00010399 <isr_0x59>:
   10399:	6a 00                	push   $0x0
   1039b:	6a 59                	push   $0x59
   1039d:	e9 9e fc ff ff       	jmp    10040 <isr_save>

000103a2 <isr_0x5a>:
   103a2:	6a 00                	push   $0x0
   103a4:	6a 5a                	push   $0x5a
   103a6:	e9 95 fc ff ff       	jmp    10040 <isr_save>

000103ab <isr_0x5b>:
   103ab:	6a 00                	push   $0x0
   103ad:	6a 5b                	push   $0x5b
   103af:	e9 8c fc ff ff       	jmp    10040 <isr_save>

000103b4 <isr_0x5c>:
ISR(0x5c);	ISR(0x5d);	ISR(0x5e);	ISR(0x5f);
   103b4:	6a 00                	push   $0x0
   103b6:	6a 5c                	push   $0x5c
   103b8:	e9 83 fc ff ff       	jmp    10040 <isr_save>

000103bd <isr_0x5d>:
   103bd:	6a 00                	push   $0x0
   103bf:	6a 5d                	push   $0x5d
   103c1:	e9 7a fc ff ff       	jmp    10040 <isr_save>

000103c6 <isr_0x5e>:
   103c6:	6a 00                	push   $0x0
   103c8:	6a 5e                	push   $0x5e
   103ca:	e9 71 fc ff ff       	jmp    10040 <isr_save>

000103cf <isr_0x5f>:
   103cf:	6a 00                	push   $0x0
   103d1:	6a 5f                	push   $0x5f
   103d3:	e9 68 fc ff ff       	jmp    10040 <isr_save>

000103d8 <isr_0x60>:
ISR(0x60);	ISR(0x61);	ISR(0x62);	ISR(0x63);
   103d8:	6a 00                	push   $0x0
   103da:	6a 60                	push   $0x60
   103dc:	e9 5f fc ff ff       	jmp    10040 <isr_save>

000103e1 <isr_0x61>:
   103e1:	6a 00                	push   $0x0
   103e3:	6a 61                	push   $0x61
   103e5:	e9 56 fc ff ff       	jmp    10040 <isr_save>

000103ea <isr_0x62>:
   103ea:	6a 00                	push   $0x0
   103ec:	6a 62                	push   $0x62
   103ee:	e9 4d fc ff ff       	jmp    10040 <isr_save>

000103f3 <isr_0x63>:
   103f3:	6a 00                	push   $0x0
   103f5:	6a 63                	push   $0x63
   103f7:	e9 44 fc ff ff       	jmp    10040 <isr_save>

000103fc <isr_0x64>:
ISR(0x64);	ISR(0x65);	ISR(0x66);	ISR(0x67);
   103fc:	6a 00                	push   $0x0
   103fe:	6a 64                	push   $0x64
   10400:	e9 3b fc ff ff       	jmp    10040 <isr_save>

00010405 <isr_0x65>:
   10405:	6a 00                	push   $0x0
   10407:	6a 65                	push   $0x65
   10409:	e9 32 fc ff ff       	jmp    10040 <isr_save>

0001040e <isr_0x66>:
   1040e:	6a 00                	push   $0x0
   10410:	6a 66                	push   $0x66
   10412:	e9 29 fc ff ff       	jmp    10040 <isr_save>

00010417 <isr_0x67>:
   10417:	6a 00                	push   $0x0
   10419:	6a 67                	push   $0x67
   1041b:	e9 20 fc ff ff       	jmp    10040 <isr_save>

00010420 <isr_0x68>:
ISR(0x68);	ISR(0x69);	ISR(0x6a);	ISR(0x6b);
   10420:	6a 00                	push   $0x0
   10422:	6a 68                	push   $0x68
   10424:	e9 17 fc ff ff       	jmp    10040 <isr_save>

00010429 <isr_0x69>:
   10429:	6a 00                	push   $0x0
   1042b:	6a 69                	push   $0x69
   1042d:	e9 0e fc ff ff       	jmp    10040 <isr_save>

00010432 <isr_0x6a>:
   10432:	6a 00                	push   $0x0
   10434:	6a 6a                	push   $0x6a
   10436:	e9 05 fc ff ff       	jmp    10040 <isr_save>

0001043b <isr_0x6b>:
   1043b:	6a 00                	push   $0x0
   1043d:	6a 6b                	push   $0x6b
   1043f:	e9 fc fb ff ff       	jmp    10040 <isr_save>

00010444 <isr_0x6c>:
ISR(0x6c);	ISR(0x6d);	ISR(0x6e);	ISR(0x6f);
   10444:	6a 00                	push   $0x0
   10446:	6a 6c                	push   $0x6c
   10448:	e9 f3 fb ff ff       	jmp    10040 <isr_save>

0001044d <isr_0x6d>:
   1044d:	6a 00                	push   $0x0
   1044f:	6a 6d                	push   $0x6d
   10451:	e9 ea fb ff ff       	jmp    10040 <isr_save>

00010456 <isr_0x6e>:
   10456:	6a 00                	push   $0x0
   10458:	6a 6e                	push   $0x6e
   1045a:	e9 e1 fb ff ff       	jmp    10040 <isr_save>

0001045f <isr_0x6f>:
   1045f:	6a 00                	push   $0x0
   10461:	6a 6f                	push   $0x6f
   10463:	e9 d8 fb ff ff       	jmp    10040 <isr_save>

00010468 <isr_0x70>:
ISR(0x70);	ISR(0x71);	ISR(0x72);	ISR(0x73);
   10468:	6a 00                	push   $0x0
   1046a:	6a 70                	push   $0x70
   1046c:	e9 cf fb ff ff       	jmp    10040 <isr_save>

00010471 <isr_0x71>:
   10471:	6a 00                	push   $0x0
   10473:	6a 71                	push   $0x71
   10475:	e9 c6 fb ff ff       	jmp    10040 <isr_save>

0001047a <isr_0x72>:
   1047a:	6a 00                	push   $0x0
   1047c:	6a 72                	push   $0x72
   1047e:	e9 bd fb ff ff       	jmp    10040 <isr_save>

00010483 <isr_0x73>:
   10483:	6a 00                	push   $0x0
   10485:	6a 73                	push   $0x73
   10487:	e9 b4 fb ff ff       	jmp    10040 <isr_save>

0001048c <isr_0x74>:
ISR(0x74);	ISR(0x75);	ISR(0x76);	ISR(0x77);
   1048c:	6a 00                	push   $0x0
   1048e:	6a 74                	push   $0x74
   10490:	e9 ab fb ff ff       	jmp    10040 <isr_save>

00010495 <isr_0x75>:
   10495:	6a 00                	push   $0x0
   10497:	6a 75                	push   $0x75
   10499:	e9 a2 fb ff ff       	jmp    10040 <isr_save>

0001049e <isr_0x76>:
   1049e:	6a 00                	push   $0x0
   104a0:	6a 76                	push   $0x76
   104a2:	e9 99 fb ff ff       	jmp    10040 <isr_save>

000104a7 <isr_0x77>:
   104a7:	6a 00                	push   $0x0
   104a9:	6a 77                	push   $0x77
   104ab:	e9 90 fb ff ff       	jmp    10040 <isr_save>

000104b0 <isr_0x78>:
ISR(0x78);	ISR(0x79);	ISR(0x7a);	ISR(0x7b);
   104b0:	6a 00                	push   $0x0
   104b2:	6a 78                	push   $0x78
   104b4:	e9 87 fb ff ff       	jmp    10040 <isr_save>

000104b9 <isr_0x79>:
   104b9:	6a 00                	push   $0x0
   104bb:	6a 79                	push   $0x79
   104bd:	e9 7e fb ff ff       	jmp    10040 <isr_save>

000104c2 <isr_0x7a>:
   104c2:	6a 00                	push   $0x0
   104c4:	6a 7a                	push   $0x7a
   104c6:	e9 75 fb ff ff       	jmp    10040 <isr_save>

000104cb <isr_0x7b>:
   104cb:	6a 00                	push   $0x0
   104cd:	6a 7b                	push   $0x7b
   104cf:	e9 6c fb ff ff       	jmp    10040 <isr_save>

000104d4 <isr_0x7c>:
ISR(0x7c);	ISR(0x7d);	ISR(0x7e);	ISR(0x7f);
   104d4:	6a 00                	push   $0x0
   104d6:	6a 7c                	push   $0x7c
   104d8:	e9 63 fb ff ff       	jmp    10040 <isr_save>

000104dd <isr_0x7d>:
   104dd:	6a 00                	push   $0x0
   104df:	6a 7d                	push   $0x7d
   104e1:	e9 5a fb ff ff       	jmp    10040 <isr_save>

000104e6 <isr_0x7e>:
   104e6:	6a 00                	push   $0x0
   104e8:	6a 7e                	push   $0x7e
   104ea:	e9 51 fb ff ff       	jmp    10040 <isr_save>

000104ef <isr_0x7f>:
   104ef:	6a 00                	push   $0x0
   104f1:	6a 7f                	push   $0x7f
   104f3:	e9 48 fb ff ff       	jmp    10040 <isr_save>

000104f8 <isr_0x80>:
ISR(0x80);	ISR(0x81);	ISR(0x82);	ISR(0x83);
   104f8:	6a 00                	push   $0x0
   104fa:	68 80 00 00 00       	push   $0x80
   104ff:	e9 3c fb ff ff       	jmp    10040 <isr_save>

00010504 <isr_0x81>:
   10504:	6a 00                	push   $0x0
   10506:	68 81 00 00 00       	push   $0x81
   1050b:	e9 30 fb ff ff       	jmp    10040 <isr_save>

00010510 <isr_0x82>:
   10510:	6a 00                	push   $0x0
   10512:	68 82 00 00 00       	push   $0x82
   10517:	e9 24 fb ff ff       	jmp    10040 <isr_save>

0001051c <isr_0x83>:
   1051c:	6a 00                	push   $0x0
   1051e:	68 83 00 00 00       	push   $0x83
   10523:	e9 18 fb ff ff       	jmp    10040 <isr_save>

00010528 <isr_0x84>:
ISR(0x84);	ISR(0x85);	ISR(0x86);	ISR(0x87);
   10528:	6a 00                	push   $0x0
   1052a:	68 84 00 00 00       	push   $0x84
   1052f:	e9 0c fb ff ff       	jmp    10040 <isr_save>

00010534 <isr_0x85>:
   10534:	6a 00                	push   $0x0
   10536:	68 85 00 00 00       	push   $0x85
   1053b:	e9 00 fb ff ff       	jmp    10040 <isr_save>

00010540 <isr_0x86>:
   10540:	6a 00                	push   $0x0
   10542:	68 86 00 00 00       	push   $0x86
   10547:	e9 f4 fa ff ff       	jmp    10040 <isr_save>

0001054c <isr_0x87>:
   1054c:	6a 00                	push   $0x0
   1054e:	68 87 00 00 00       	push   $0x87
   10553:	e9 e8 fa ff ff       	jmp    10040 <isr_save>

00010558 <isr_0x88>:
ISR(0x88);	ISR(0x89);	ISR(0x8a);	ISR(0x8b);
   10558:	6a 00                	push   $0x0
   1055a:	68 88 00 00 00       	push   $0x88
   1055f:	e9 dc fa ff ff       	jmp    10040 <isr_save>

00010564 <isr_0x89>:
   10564:	6a 00                	push   $0x0
   10566:	68 89 00 00 00       	push   $0x89
   1056b:	e9 d0 fa ff ff       	jmp    10040 <isr_save>

00010570 <isr_0x8a>:
   10570:	6a 00                	push   $0x0
   10572:	68 8a 00 00 00       	push   $0x8a
   10577:	e9 c4 fa ff ff       	jmp    10040 <isr_save>

0001057c <isr_0x8b>:
   1057c:	6a 00                	push   $0x0
   1057e:	68 8b 00 00 00       	push   $0x8b
   10583:	e9 b8 fa ff ff       	jmp    10040 <isr_save>

00010588 <isr_0x8c>:
ISR(0x8c);	ISR(0x8d);	ISR(0x8e);	ISR(0x8f);
   10588:	6a 00                	push   $0x0
   1058a:	68 8c 00 00 00       	push   $0x8c
   1058f:	e9 ac fa ff ff       	jmp    10040 <isr_save>

00010594 <isr_0x8d>:
   10594:	6a 00                	push   $0x0
   10596:	68 8d 00 00 00       	push   $0x8d
   1059b:	e9 a0 fa ff ff       	jmp    10040 <isr_save>

000105a0 <isr_0x8e>:
   105a0:	6a 00                	push   $0x0
   105a2:	68 8e 00 00 00       	push   $0x8e
   105a7:	e9 94 fa ff ff       	jmp    10040 <isr_save>

000105ac <isr_0x8f>:
   105ac:	6a 00                	push   $0x0
   105ae:	68 8f 00 00 00       	push   $0x8f
   105b3:	e9 88 fa ff ff       	jmp    10040 <isr_save>

000105b8 <isr_0x90>:
ISR(0x90);	ISR(0x91);	ISR(0x92);	ISR(0x93);
   105b8:	6a 00                	push   $0x0
   105ba:	68 90 00 00 00       	push   $0x90
   105bf:	e9 7c fa ff ff       	jmp    10040 <isr_save>

000105c4 <isr_0x91>:
   105c4:	6a 00                	push   $0x0
   105c6:	68 91 00 00 00       	push   $0x91
   105cb:	e9 70 fa ff ff       	jmp    10040 <isr_save>

000105d0 <isr_0x92>:
   105d0:	6a 00                	push   $0x0
   105d2:	68 92 00 00 00       	push   $0x92
   105d7:	e9 64 fa ff ff       	jmp    10040 <isr_save>

000105dc <isr_0x93>:
   105dc:	6a 00                	push   $0x0
   105de:	68 93 00 00 00       	push   $0x93
   105e3:	e9 58 fa ff ff       	jmp    10040 <isr_save>

000105e8 <isr_0x94>:
ISR(0x94);	ISR(0x95);	ISR(0x96);	ISR(0x97);
   105e8:	6a 00                	push   $0x0
   105ea:	68 94 00 00 00       	push   $0x94
   105ef:	e9 4c fa ff ff       	jmp    10040 <isr_save>

000105f4 <isr_0x95>:
   105f4:	6a 00                	push   $0x0
   105f6:	68 95 00 00 00       	push   $0x95
   105fb:	e9 40 fa ff ff       	jmp    10040 <isr_save>

00010600 <isr_0x96>:
   10600:	6a 00                	push   $0x0
   10602:	68 96 00 00 00       	push   $0x96
   10607:	e9 34 fa ff ff       	jmp    10040 <isr_save>

0001060c <isr_0x97>:
   1060c:	6a 00                	push   $0x0
   1060e:	68 97 00 00 00       	push   $0x97
   10613:	e9 28 fa ff ff       	jmp    10040 <isr_save>

00010618 <isr_0x98>:
ISR(0x98);	ISR(0x99);	ISR(0x9a);	ISR(0x9b);
   10618:	6a 00                	push   $0x0
   1061a:	68 98 00 00 00       	push   $0x98
   1061f:	e9 1c fa ff ff       	jmp    10040 <isr_save>

00010624 <isr_0x99>:
   10624:	6a 00                	push   $0x0
   10626:	68 99 00 00 00       	push   $0x99
   1062b:	e9 10 fa ff ff       	jmp    10040 <isr_save>

00010630 <isr_0x9a>:
   10630:	6a 00                	push   $0x0
   10632:	68 9a 00 00 00       	push   $0x9a
   10637:	e9 04 fa ff ff       	jmp    10040 <isr_save>

0001063c <isr_0x9b>:
   1063c:	6a 00                	push   $0x0
   1063e:	68 9b 00 00 00       	push   $0x9b
   10643:	e9 f8 f9 ff ff       	jmp    10040 <isr_save>

00010648 <isr_0x9c>:
ISR(0x9c);	ISR(0x9d);	ISR(0x9e);	ISR(0x9f);
   10648:	6a 00                	push   $0x0
   1064a:	68 9c 00 00 00       	push   $0x9c
   1064f:	e9 ec f9 ff ff       	jmp    10040 <isr_save>

00010654 <isr_0x9d>:
   10654:	6a 00                	push   $0x0
   10656:	68 9d 00 00 00       	push   $0x9d
   1065b:	e9 e0 f9 ff ff       	jmp    10040 <isr_save>

00010660 <isr_0x9e>:
   10660:	6a 00                	push   $0x0
   10662:	68 9e 00 00 00       	push   $0x9e
   10667:	e9 d4 f9 ff ff       	jmp    10040 <isr_save>

0001066c <isr_0x9f>:
   1066c:	6a 00                	push   $0x0
   1066e:	68 9f 00 00 00       	push   $0x9f
   10673:	e9 c8 f9 ff ff       	jmp    10040 <isr_save>

00010678 <isr_0xa0>:
ISR(0xa0);	ISR(0xa1);	ISR(0xa2);	ISR(0xa3);
   10678:	6a 00                	push   $0x0
   1067a:	68 a0 00 00 00       	push   $0xa0
   1067f:	e9 bc f9 ff ff       	jmp    10040 <isr_save>

00010684 <isr_0xa1>:
   10684:	6a 00                	push   $0x0
   10686:	68 a1 00 00 00       	push   $0xa1
   1068b:	e9 b0 f9 ff ff       	jmp    10040 <isr_save>

00010690 <isr_0xa2>:
   10690:	6a 00                	push   $0x0
   10692:	68 a2 00 00 00       	push   $0xa2
   10697:	e9 a4 f9 ff ff       	jmp    10040 <isr_save>

0001069c <isr_0xa3>:
   1069c:	6a 00                	push   $0x0
   1069e:	68 a3 00 00 00       	push   $0xa3
   106a3:	e9 98 f9 ff ff       	jmp    10040 <isr_save>

000106a8 <isr_0xa4>:
ISR(0xa4);	ISR(0xa5);	ISR(0xa6);	ISR(0xa7);
   106a8:	6a 00                	push   $0x0
   106aa:	68 a4 00 00 00       	push   $0xa4
   106af:	e9 8c f9 ff ff       	jmp    10040 <isr_save>

000106b4 <isr_0xa5>:
   106b4:	6a 00                	push   $0x0
   106b6:	68 a5 00 00 00       	push   $0xa5
   106bb:	e9 80 f9 ff ff       	jmp    10040 <isr_save>

000106c0 <isr_0xa6>:
   106c0:	6a 00                	push   $0x0
   106c2:	68 a6 00 00 00       	push   $0xa6
   106c7:	e9 74 f9 ff ff       	jmp    10040 <isr_save>

000106cc <isr_0xa7>:
   106cc:	6a 00                	push   $0x0
   106ce:	68 a7 00 00 00       	push   $0xa7
   106d3:	e9 68 f9 ff ff       	jmp    10040 <isr_save>

000106d8 <isr_0xa8>:
ISR(0xa8);	ISR(0xa9);	ISR(0xaa);	ISR(0xab);
   106d8:	6a 00                	push   $0x0
   106da:	68 a8 00 00 00       	push   $0xa8
   106df:	e9 5c f9 ff ff       	jmp    10040 <isr_save>

000106e4 <isr_0xa9>:
   106e4:	6a 00                	push   $0x0
   106e6:	68 a9 00 00 00       	push   $0xa9
   106eb:	e9 50 f9 ff ff       	jmp    10040 <isr_save>

000106f0 <isr_0xaa>:
   106f0:	6a 00                	push   $0x0
   106f2:	68 aa 00 00 00       	push   $0xaa
   106f7:	e9 44 f9 ff ff       	jmp    10040 <isr_save>

000106fc <isr_0xab>:
   106fc:	6a 00                	push   $0x0
   106fe:	68 ab 00 00 00       	push   $0xab
   10703:	e9 38 f9 ff ff       	jmp    10040 <isr_save>

00010708 <isr_0xac>:
ISR(0xac);	ISR(0xad);	ISR(0xae);	ISR(0xaf);
   10708:	6a 00                	push   $0x0
   1070a:	68 ac 00 00 00       	push   $0xac
   1070f:	e9 2c f9 ff ff       	jmp    10040 <isr_save>

00010714 <isr_0xad>:
   10714:	6a 00                	push   $0x0
   10716:	68 ad 00 00 00       	push   $0xad
   1071b:	e9 20 f9 ff ff       	jmp    10040 <isr_save>

00010720 <isr_0xae>:
   10720:	6a 00                	push   $0x0
   10722:	68 ae 00 00 00       	push   $0xae
   10727:	e9 14 f9 ff ff       	jmp    10040 <isr_save>

0001072c <isr_0xaf>:
   1072c:	6a 00                	push   $0x0
   1072e:	68 af 00 00 00       	push   $0xaf
   10733:	e9 08 f9 ff ff       	jmp    10040 <isr_save>

00010738 <isr_0xb0>:
ISR(0xb0);	ISR(0xb1);	ISR(0xb2);	ISR(0xb3);
   10738:	6a 00                	push   $0x0
   1073a:	68 b0 00 00 00       	push   $0xb0
   1073f:	e9 fc f8 ff ff       	jmp    10040 <isr_save>

00010744 <isr_0xb1>:
   10744:	6a 00                	push   $0x0
   10746:	68 b1 00 00 00       	push   $0xb1
   1074b:	e9 f0 f8 ff ff       	jmp    10040 <isr_save>

00010750 <isr_0xb2>:
   10750:	6a 00                	push   $0x0
   10752:	68 b2 00 00 00       	push   $0xb2
   10757:	e9 e4 f8 ff ff       	jmp    10040 <isr_save>

0001075c <isr_0xb3>:
   1075c:	6a 00                	push   $0x0
   1075e:	68 b3 00 00 00       	push   $0xb3
   10763:	e9 d8 f8 ff ff       	jmp    10040 <isr_save>

00010768 <isr_0xb4>:
ISR(0xb4);	ISR(0xb5);	ISR(0xb6);	ISR(0xb7);
   10768:	6a 00                	push   $0x0
   1076a:	68 b4 00 00 00       	push   $0xb4
   1076f:	e9 cc f8 ff ff       	jmp    10040 <isr_save>

00010774 <isr_0xb5>:
   10774:	6a 00                	push   $0x0
   10776:	68 b5 00 00 00       	push   $0xb5
   1077b:	e9 c0 f8 ff ff       	jmp    10040 <isr_save>

00010780 <isr_0xb6>:
   10780:	6a 00                	push   $0x0
   10782:	68 b6 00 00 00       	push   $0xb6
   10787:	e9 b4 f8 ff ff       	jmp    10040 <isr_save>

0001078c <isr_0xb7>:
   1078c:	6a 00                	push   $0x0
   1078e:	68 b7 00 00 00       	push   $0xb7
   10793:	e9 a8 f8 ff ff       	jmp    10040 <isr_save>

00010798 <isr_0xb8>:
ISR(0xb8);	ISR(0xb9);	ISR(0xba);	ISR(0xbb);
   10798:	6a 00                	push   $0x0
   1079a:	68 b8 00 00 00       	push   $0xb8
   1079f:	e9 9c f8 ff ff       	jmp    10040 <isr_save>

000107a4 <isr_0xb9>:
   107a4:	6a 00                	push   $0x0
   107a6:	68 b9 00 00 00       	push   $0xb9
   107ab:	e9 90 f8 ff ff       	jmp    10040 <isr_save>

000107b0 <isr_0xba>:
   107b0:	6a 00                	push   $0x0
   107b2:	68 ba 00 00 00       	push   $0xba
   107b7:	e9 84 f8 ff ff       	jmp    10040 <isr_save>

000107bc <isr_0xbb>:
   107bc:	6a 00                	push   $0x0
   107be:	68 bb 00 00 00       	push   $0xbb
   107c3:	e9 78 f8 ff ff       	jmp    10040 <isr_save>

000107c8 <isr_0xbc>:
ISR(0xbc);	ISR(0xbd);	ISR(0xbe);	ISR(0xbf);
   107c8:	6a 00                	push   $0x0
   107ca:	68 bc 00 00 00       	push   $0xbc
   107cf:	e9 6c f8 ff ff       	jmp    10040 <isr_save>

000107d4 <isr_0xbd>:
   107d4:	6a 00                	push   $0x0
   107d6:	68 bd 00 00 00       	push   $0xbd
   107db:	e9 60 f8 ff ff       	jmp    10040 <isr_save>

000107e0 <isr_0xbe>:
   107e0:	6a 00                	push   $0x0
   107e2:	68 be 00 00 00       	push   $0xbe
   107e7:	e9 54 f8 ff ff       	jmp    10040 <isr_save>

000107ec <isr_0xbf>:
   107ec:	6a 00                	push   $0x0
   107ee:	68 bf 00 00 00       	push   $0xbf
   107f3:	e9 48 f8 ff ff       	jmp    10040 <isr_save>

000107f8 <isr_0xc0>:
ISR(0xc0);	ISR(0xc1);	ISR(0xc2);	ISR(0xc3);
   107f8:	6a 00                	push   $0x0
   107fa:	68 c0 00 00 00       	push   $0xc0
   107ff:	e9 3c f8 ff ff       	jmp    10040 <isr_save>

00010804 <isr_0xc1>:
   10804:	6a 00                	push   $0x0
   10806:	68 c1 00 00 00       	push   $0xc1
   1080b:	e9 30 f8 ff ff       	jmp    10040 <isr_save>

00010810 <isr_0xc2>:
   10810:	6a 00                	push   $0x0
   10812:	68 c2 00 00 00       	push   $0xc2
   10817:	e9 24 f8 ff ff       	jmp    10040 <isr_save>

0001081c <isr_0xc3>:
   1081c:	6a 00                	push   $0x0
   1081e:	68 c3 00 00 00       	push   $0xc3
   10823:	e9 18 f8 ff ff       	jmp    10040 <isr_save>

00010828 <isr_0xc4>:
ISR(0xc4);	ISR(0xc5);	ISR(0xc6);	ISR(0xc7);
   10828:	6a 00                	push   $0x0
   1082a:	68 c4 00 00 00       	push   $0xc4
   1082f:	e9 0c f8 ff ff       	jmp    10040 <isr_save>

00010834 <isr_0xc5>:
   10834:	6a 00                	push   $0x0
   10836:	68 c5 00 00 00       	push   $0xc5
   1083b:	e9 00 f8 ff ff       	jmp    10040 <isr_save>

00010840 <isr_0xc6>:
   10840:	6a 00                	push   $0x0
   10842:	68 c6 00 00 00       	push   $0xc6
   10847:	e9 f4 f7 ff ff       	jmp    10040 <isr_save>

0001084c <isr_0xc7>:
   1084c:	6a 00                	push   $0x0
   1084e:	68 c7 00 00 00       	push   $0xc7
   10853:	e9 e8 f7 ff ff       	jmp    10040 <isr_save>

00010858 <isr_0xc8>:
ISR(0xc8);	ISR(0xc9);	ISR(0xca);	ISR(0xcb);
   10858:	6a 00                	push   $0x0
   1085a:	68 c8 00 00 00       	push   $0xc8
   1085f:	e9 dc f7 ff ff       	jmp    10040 <isr_save>

00010864 <isr_0xc9>:
   10864:	6a 00                	push   $0x0
   10866:	68 c9 00 00 00       	push   $0xc9
   1086b:	e9 d0 f7 ff ff       	jmp    10040 <isr_save>

00010870 <isr_0xca>:
   10870:	6a 00                	push   $0x0
   10872:	68 ca 00 00 00       	push   $0xca
   10877:	e9 c4 f7 ff ff       	jmp    10040 <isr_save>

0001087c <isr_0xcb>:
   1087c:	6a 00                	push   $0x0
   1087e:	68 cb 00 00 00       	push   $0xcb
   10883:	e9 b8 f7 ff ff       	jmp    10040 <isr_save>

00010888 <isr_0xcc>:
ISR(0xcc);	ISR(0xcd);	ISR(0xce);	ISR(0xcf);
   10888:	6a 00                	push   $0x0
   1088a:	68 cc 00 00 00       	push   $0xcc
   1088f:	e9 ac f7 ff ff       	jmp    10040 <isr_save>

00010894 <isr_0xcd>:
   10894:	6a 00                	push   $0x0
   10896:	68 cd 00 00 00       	push   $0xcd
   1089b:	e9 a0 f7 ff ff       	jmp    10040 <isr_save>

000108a0 <isr_0xce>:
   108a0:	6a 00                	push   $0x0
   108a2:	68 ce 00 00 00       	push   $0xce
   108a7:	e9 94 f7 ff ff       	jmp    10040 <isr_save>

000108ac <isr_0xcf>:
   108ac:	6a 00                	push   $0x0
   108ae:	68 cf 00 00 00       	push   $0xcf
   108b3:	e9 88 f7 ff ff       	jmp    10040 <isr_save>

000108b8 <isr_0xd0>:
ISR(0xd0);	ISR(0xd1);	ISR(0xd2);	ISR(0xd3);
   108b8:	6a 00                	push   $0x0
   108ba:	68 d0 00 00 00       	push   $0xd0
   108bf:	e9 7c f7 ff ff       	jmp    10040 <isr_save>

000108c4 <isr_0xd1>:
   108c4:	6a 00                	push   $0x0
   108c6:	68 d1 00 00 00       	push   $0xd1
   108cb:	e9 70 f7 ff ff       	jmp    10040 <isr_save>

000108d0 <isr_0xd2>:
   108d0:	6a 00                	push   $0x0
   108d2:	68 d2 00 00 00       	push   $0xd2
   108d7:	e9 64 f7 ff ff       	jmp    10040 <isr_save>

000108dc <isr_0xd3>:
   108dc:	6a 00                	push   $0x0
   108de:	68 d3 00 00 00       	push   $0xd3
   108e3:	e9 58 f7 ff ff       	jmp    10040 <isr_save>

000108e8 <isr_0xd4>:
ISR(0xd4);	ISR(0xd5);	ISR(0xd6);	ISR(0xd7);
   108e8:	6a 00                	push   $0x0
   108ea:	68 d4 00 00 00       	push   $0xd4
   108ef:	e9 4c f7 ff ff       	jmp    10040 <isr_save>

000108f4 <isr_0xd5>:
   108f4:	6a 00                	push   $0x0
   108f6:	68 d5 00 00 00       	push   $0xd5
   108fb:	e9 40 f7 ff ff       	jmp    10040 <isr_save>

00010900 <isr_0xd6>:
   10900:	6a 00                	push   $0x0
   10902:	68 d6 00 00 00       	push   $0xd6
   10907:	e9 34 f7 ff ff       	jmp    10040 <isr_save>

0001090c <isr_0xd7>:
   1090c:	6a 00                	push   $0x0
   1090e:	68 d7 00 00 00       	push   $0xd7
   10913:	e9 28 f7 ff ff       	jmp    10040 <isr_save>

00010918 <isr_0xd8>:
ISR(0xd8);	ISR(0xd9);	ISR(0xda);	ISR(0xdb);
   10918:	6a 00                	push   $0x0
   1091a:	68 d8 00 00 00       	push   $0xd8
   1091f:	e9 1c f7 ff ff       	jmp    10040 <isr_save>

00010924 <isr_0xd9>:
   10924:	6a 00                	push   $0x0
   10926:	68 d9 00 00 00       	push   $0xd9
   1092b:	e9 10 f7 ff ff       	jmp    10040 <isr_save>

00010930 <isr_0xda>:
   10930:	6a 00                	push   $0x0
   10932:	68 da 00 00 00       	push   $0xda
   10937:	e9 04 f7 ff ff       	jmp    10040 <isr_save>

0001093c <isr_0xdb>:
   1093c:	6a 00                	push   $0x0
   1093e:	68 db 00 00 00       	push   $0xdb
   10943:	e9 f8 f6 ff ff       	jmp    10040 <isr_save>

00010948 <isr_0xdc>:
ISR(0xdc);	ISR(0xdd);	ISR(0xde);	ISR(0xdf);
   10948:	6a 00                	push   $0x0
   1094a:	68 dc 00 00 00       	push   $0xdc
   1094f:	e9 ec f6 ff ff       	jmp    10040 <isr_save>

00010954 <isr_0xdd>:
   10954:	6a 00                	push   $0x0
   10956:	68 dd 00 00 00       	push   $0xdd
   1095b:	e9 e0 f6 ff ff       	jmp    10040 <isr_save>

00010960 <isr_0xde>:
   10960:	6a 00                	push   $0x0
   10962:	68 de 00 00 00       	push   $0xde
   10967:	e9 d4 f6 ff ff       	jmp    10040 <isr_save>

0001096c <isr_0xdf>:
   1096c:	6a 00                	push   $0x0
   1096e:	68 df 00 00 00       	push   $0xdf
   10973:	e9 c8 f6 ff ff       	jmp    10040 <isr_save>

00010978 <isr_0xe0>:
ISR(0xe0);	ISR(0xe1);	ISR(0xe2);	ISR(0xe3);
   10978:	6a 00                	push   $0x0
   1097a:	68 e0 00 00 00       	push   $0xe0
   1097f:	e9 bc f6 ff ff       	jmp    10040 <isr_save>

00010984 <isr_0xe1>:
   10984:	6a 00                	push   $0x0
   10986:	68 e1 00 00 00       	push   $0xe1
   1098b:	e9 b0 f6 ff ff       	jmp    10040 <isr_save>

00010990 <isr_0xe2>:
   10990:	6a 00                	push   $0x0
   10992:	68 e2 00 00 00       	push   $0xe2
   10997:	e9 a4 f6 ff ff       	jmp    10040 <isr_save>

0001099c <isr_0xe3>:
   1099c:	6a 00                	push   $0x0
   1099e:	68 e3 00 00 00       	push   $0xe3
   109a3:	e9 98 f6 ff ff       	jmp    10040 <isr_save>

000109a8 <isr_0xe4>:
ISR(0xe4);	ISR(0xe5);	ISR(0xe6);	ISR(0xe7);
   109a8:	6a 00                	push   $0x0
   109aa:	68 e4 00 00 00       	push   $0xe4
   109af:	e9 8c f6 ff ff       	jmp    10040 <isr_save>

000109b4 <isr_0xe5>:
   109b4:	6a 00                	push   $0x0
   109b6:	68 e5 00 00 00       	push   $0xe5
   109bb:	e9 80 f6 ff ff       	jmp    10040 <isr_save>

000109c0 <isr_0xe6>:
   109c0:	6a 00                	push   $0x0
   109c2:	68 e6 00 00 00       	push   $0xe6
   109c7:	e9 74 f6 ff ff       	jmp    10040 <isr_save>

000109cc <isr_0xe7>:
   109cc:	6a 00                	push   $0x0
   109ce:	68 e7 00 00 00       	push   $0xe7
   109d3:	e9 68 f6 ff ff       	jmp    10040 <isr_save>

000109d8 <isr_0xe8>:
ISR(0xe8);	ISR(0xe9);	ISR(0xea);	ISR(0xeb);
   109d8:	6a 00                	push   $0x0
   109da:	68 e8 00 00 00       	push   $0xe8
   109df:	e9 5c f6 ff ff       	jmp    10040 <isr_save>

000109e4 <isr_0xe9>:
   109e4:	6a 00                	push   $0x0
   109e6:	68 e9 00 00 00       	push   $0xe9
   109eb:	e9 50 f6 ff ff       	jmp    10040 <isr_save>

000109f0 <isr_0xea>:
   109f0:	6a 00                	push   $0x0
   109f2:	68 ea 00 00 00       	push   $0xea
   109f7:	e9 44 f6 ff ff       	jmp    10040 <isr_save>

000109fc <isr_0xeb>:
   109fc:	6a 00                	push   $0x0
   109fe:	68 eb 00 00 00       	push   $0xeb
   10a03:	e9 38 f6 ff ff       	jmp    10040 <isr_save>

00010a08 <isr_0xec>:
ISR(0xec);	ISR(0xed);	ISR(0xee);	ISR(0xef);
   10a08:	6a 00                	push   $0x0
   10a0a:	68 ec 00 00 00       	push   $0xec
   10a0f:	e9 2c f6 ff ff       	jmp    10040 <isr_save>

00010a14 <isr_0xed>:
   10a14:	6a 00                	push   $0x0
   10a16:	68 ed 00 00 00       	push   $0xed
   10a1b:	e9 20 f6 ff ff       	jmp    10040 <isr_save>

00010a20 <isr_0xee>:
   10a20:	6a 00                	push   $0x0
   10a22:	68 ee 00 00 00       	push   $0xee
   10a27:	e9 14 f6 ff ff       	jmp    10040 <isr_save>

00010a2c <isr_0xef>:
   10a2c:	6a 00                	push   $0x0
   10a2e:	68 ef 00 00 00       	push   $0xef
   10a33:	e9 08 f6 ff ff       	jmp    10040 <isr_save>

00010a38 <isr_0xf0>:
ISR(0xf0);	ISR(0xf1);	ISR(0xf2);	ISR(0xf3);
   10a38:	6a 00                	push   $0x0
   10a3a:	68 f0 00 00 00       	push   $0xf0
   10a3f:	e9 fc f5 ff ff       	jmp    10040 <isr_save>

00010a44 <isr_0xf1>:
   10a44:	6a 00                	push   $0x0
   10a46:	68 f1 00 00 00       	push   $0xf1
   10a4b:	e9 f0 f5 ff ff       	jmp    10040 <isr_save>

00010a50 <isr_0xf2>:
   10a50:	6a 00                	push   $0x0
   10a52:	68 f2 00 00 00       	push   $0xf2
   10a57:	e9 e4 f5 ff ff       	jmp    10040 <isr_save>

00010a5c <isr_0xf3>:
   10a5c:	6a 00                	push   $0x0
   10a5e:	68 f3 00 00 00       	push   $0xf3
   10a63:	e9 d8 f5 ff ff       	jmp    10040 <isr_save>

00010a68 <isr_0xf4>:
ISR(0xf4);	ISR(0xf5);	ISR(0xf6);	ISR(0xf7);
   10a68:	6a 00                	push   $0x0
   10a6a:	68 f4 00 00 00       	push   $0xf4
   10a6f:	e9 cc f5 ff ff       	jmp    10040 <isr_save>

00010a74 <isr_0xf5>:
   10a74:	6a 00                	push   $0x0
   10a76:	68 f5 00 00 00       	push   $0xf5
   10a7b:	e9 c0 f5 ff ff       	jmp    10040 <isr_save>

00010a80 <isr_0xf6>:
   10a80:	6a 00                	push   $0x0
   10a82:	68 f6 00 00 00       	push   $0xf6
   10a87:	e9 b4 f5 ff ff       	jmp    10040 <isr_save>

00010a8c <isr_0xf7>:
   10a8c:	6a 00                	push   $0x0
   10a8e:	68 f7 00 00 00       	push   $0xf7
   10a93:	e9 a8 f5 ff ff       	jmp    10040 <isr_save>

00010a98 <isr_0xf8>:
ISR(0xf8);	ISR(0xf9);	ISR(0xfa);	ISR(0xfb);
   10a98:	6a 00                	push   $0x0
   10a9a:	68 f8 00 00 00       	push   $0xf8
   10a9f:	e9 9c f5 ff ff       	jmp    10040 <isr_save>

00010aa4 <isr_0xf9>:
   10aa4:	6a 00                	push   $0x0
   10aa6:	68 f9 00 00 00       	push   $0xf9
   10aab:	e9 90 f5 ff ff       	jmp    10040 <isr_save>

00010ab0 <isr_0xfa>:
   10ab0:	6a 00                	push   $0x0
   10ab2:	68 fa 00 00 00       	push   $0xfa
   10ab7:	e9 84 f5 ff ff       	jmp    10040 <isr_save>

00010abc <isr_0xfb>:
   10abc:	6a 00                	push   $0x0
   10abe:	68 fb 00 00 00       	push   $0xfb
   10ac3:	e9 78 f5 ff ff       	jmp    10040 <isr_save>

00010ac8 <isr_0xfc>:
ISR(0xfc);	ISR(0xfd);	ISR(0xfe);	ISR(0xff);
   10ac8:	6a 00                	push   $0x0
   10aca:	68 fc 00 00 00       	push   $0xfc
   10acf:	e9 6c f5 ff ff       	jmp    10040 <isr_save>

00010ad4 <isr_0xfd>:
   10ad4:	6a 00                	push   $0x0
   10ad6:	68 fd 00 00 00       	push   $0xfd
   10adb:	e9 60 f5 ff ff       	jmp    10040 <isr_save>

00010ae0 <isr_0xfe>:
   10ae0:	6a 00                	push   $0x0
   10ae2:	68 fe 00 00 00       	push   $0xfe
   10ae7:	e9 54 f5 ff ff       	jmp    10040 <isr_save>

00010aec <isr_0xff>:
   10aec:	6a 00                	push   $0x0
   10aee:	68 ff 00 00 00       	push   $0xff
   10af3:	e9 48 f5 ff ff       	jmp    10040 <isr_save>

00010af8 <setcursor>:
*/

/*
** setcursor: set the cursor location (screen coordinates)
*/
static void setcursor( void ) {
   10af8:	55                   	push   %ebp
   10af9:	89 e5                	mov    %esp,%ebp
   10afb:	83 ec 30             	sub    $0x30,%esp
	unsigned addr;
	unsigned int y = curr_y;
   10afe:	a1 14 e0 01 00       	mov    0x1e014,%eax
   10b03:	89 45 fc             	mov    %eax,-0x4(%ebp)

	if( y > scroll_max_y ) {
   10b06:	a1 0c e0 01 00       	mov    0x1e00c,%eax
   10b0b:	39 45 fc             	cmp    %eax,-0x4(%ebp)
   10b0e:	76 08                	jbe    10b18 <setcursor+0x20>
		y = scroll_max_y;
   10b10:	a1 0c e0 01 00       	mov    0x1e00c,%eax
   10b15:	89 45 fc             	mov    %eax,-0x4(%ebp)
	}

	addr = (unsigned)( y * SCREEN_X_SIZE + curr_x );
   10b18:	8b 55 fc             	mov    -0x4(%ebp),%edx
   10b1b:	89 d0                	mov    %edx,%eax
   10b1d:	c1 e0 02             	shl    $0x2,%eax
   10b20:	01 d0                	add    %edx,%eax
   10b22:	c1 e0 04             	shl    $0x4,%eax
   10b25:	89 c2                	mov    %eax,%edx
   10b27:	a1 10 e0 01 00       	mov    0x1e010,%eax
   10b2c:	01 d0                	add    %edx,%eax
   10b2e:	89 45 f8             	mov    %eax,-0x8(%ebp)
   10b31:	c7 45 dc d4 03 00 00 	movl   $0x3d4,-0x24(%ebp)
   10b38:	c6 45 db 0e          	movb   $0xe,-0x25(%ebp)
** @return The data read from the specified port
*/
OPSINLINED static inline void
outb( int port, uint8_t data )
{
	__asm__ __volatile__( "outb %0,%w1" : : "a" (data), "d" (port) );
   10b3c:	0f b6 45 db          	movzbl -0x25(%ebp),%eax
   10b40:	8b 55 dc             	mov    -0x24(%ebp),%edx
   10b43:	ee                   	out    %al,(%dx)

	outb( VGA_CTRL_IX_ADDR, VGA_CTRL_CUR_HIGH );
	outb( VGA_CTRL_IX_DATA, ( addr >> 8 ) & BMASK8 );
   10b44:	8b 45 f8             	mov    -0x8(%ebp),%eax
   10b47:	c1 e8 08             	shr    $0x8,%eax
   10b4a:	0f b6 c0             	movzbl %al,%eax
   10b4d:	c7 45 e4 d5 03 00 00 	movl   $0x3d5,-0x1c(%ebp)
   10b54:	88 45 e3             	mov    %al,-0x1d(%ebp)
   10b57:	0f b6 45 e3          	movzbl -0x1d(%ebp),%eax
   10b5b:	8b 55 e4             	mov    -0x1c(%ebp),%edx
   10b5e:	ee                   	out    %al,(%dx)
   10b5f:	c7 45 ec d4 03 00 00 	movl   $0x3d4,-0x14(%ebp)
   10b66:	c6 45 eb 0f          	movb   $0xf,-0x15(%ebp)
   10b6a:	0f b6 45 eb          	movzbl -0x15(%ebp),%eax
   10b6e:	8b 55 ec             	mov    -0x14(%ebp),%edx
   10b71:	ee                   	out    %al,(%dx)
	outb( VGA_CTRL_IX_ADDR, VGA_CTRL_CUR_LOW );
	outb( VGA_CTRL_IX_DATA, addr & BMASK8 );
   10b72:	8b 45 f8             	mov    -0x8(%ebp),%eax
   10b75:	0f b6 c0             	movzbl %al,%eax
   10b78:	c7 45 f4 d5 03 00 00 	movl   $0x3d5,-0xc(%ebp)
   10b7f:	88 45 f3             	mov    %al,-0xd(%ebp)
   10b82:	0f b6 45 f3          	movzbl -0xd(%ebp),%eax
   10b86:	8b 55 f4             	mov    -0xc(%ebp),%edx
   10b89:	ee                   	out    %al,(%dx)
}
   10b8a:	90                   	nop
   10b8b:	c9                   	leave  
   10b8c:	c3                   	ret    

00010b8d <putchar_at>:

/*
** putchar_at: physical output to the video memory
*/
static void putchar_at( unsigned int x, unsigned int y, unsigned int c ) {
   10b8d:	55                   	push   %ebp
   10b8e:	89 e5                	mov    %esp,%ebp
   10b90:	83 ec 10             	sub    $0x10,%esp
	/*
	** If x or y is too big or small, don't do any output.
	*/
	if( x <= max_x && y <= max_y ) {
   10b93:	a1 20 e0 01 00       	mov    0x1e020,%eax
   10b98:	39 45 08             	cmp    %eax,0x8(%ebp)
   10b9b:	77 53                	ja     10bf0 <putchar_at+0x63>
   10b9d:	a1 24 e0 01 00       	mov    0x1e024,%eax
   10ba2:	39 45 0c             	cmp    %eax,0xc(%ebp)
   10ba5:	77 49                	ja     10bf0 <putchar_at+0x63>
		unsigned short *addr = VIDEO_ADDR( x, y );
   10ba7:	8b 55 0c             	mov    0xc(%ebp),%edx
   10baa:	89 d0                	mov    %edx,%eax
   10bac:	c1 e0 02             	shl    $0x2,%eax
   10baf:	01 d0                	add    %edx,%eax
   10bb1:	c1 e0 04             	shl    $0x4,%eax
   10bb4:	89 c2                	mov    %eax,%edx
   10bb6:	8b 45 08             	mov    0x8(%ebp),%eax
   10bb9:	01 d0                	add    %edx,%eax
   10bbb:	05 00 c0 05 00       	add    $0x5c000,%eax
   10bc0:	01 c0                	add    %eax,%eax
   10bc2:	89 45 fc             	mov    %eax,-0x4(%ebp)

		/*
		** The character may have attributes associated with it; if
		** so, use those, otherwise use white on black.
		*/
		c &= 0xffff;	// keep only the lower bytes
   10bc5:	81 65 10 ff ff 00 00 	andl   $0xffff,0x10(%ebp)
		if( c > BMASK8 ) {
   10bcc:	81 7d 10 ff 00 00 00 	cmpl   $0xff,0x10(%ebp)
   10bd3:	76 0d                	jbe    10be2 <putchar_at+0x55>
			*addr = (unsigned short)c;
   10bd5:	8b 45 10             	mov    0x10(%ebp),%eax
   10bd8:	89 c2                	mov    %eax,%edx
   10bda:	8b 45 fc             	mov    -0x4(%ebp),%eax
   10bdd:	66 89 10             	mov    %dx,(%eax)
		} else {
			*addr = (unsigned short)c | VGA_DEFAULT;
		}
	}
}
   10be0:	eb 0e                	jmp    10bf0 <putchar_at+0x63>
			*addr = (unsigned short)c | VGA_DEFAULT;
   10be2:	8b 45 10             	mov    0x10(%ebp),%eax
   10be5:	80 cc 07             	or     $0x7,%ah
   10be8:	89 c2                	mov    %eax,%edx
   10bea:	8b 45 fc             	mov    -0x4(%ebp),%eax
   10bed:	66 89 10             	mov    %dx,(%eax)
}
   10bf0:	90                   	nop
   10bf1:	c9                   	leave  
   10bf2:	c3                   	ret    

00010bf3 <cio_setscroll>:

/*
** Set the scrolling region
*/
void cio_setscroll( unsigned int s_min_x, unsigned int s_min_y,
					  unsigned int s_max_x, unsigned int s_max_y ) {
   10bf3:	55                   	push   %ebp
   10bf4:	89 e5                	mov    %esp,%ebp
   10bf6:	83 ec 08             	sub    $0x8,%esp
	scroll_min_x = bound( min_x, s_min_x, max_x );
   10bf9:	8b 15 20 e0 01 00    	mov    0x1e020,%edx
   10bff:	a1 18 e0 01 00       	mov    0x1e018,%eax
   10c04:	83 ec 04             	sub    $0x4,%esp
   10c07:	52                   	push   %edx
   10c08:	ff 75 08             	pushl  0x8(%ebp)
   10c0b:	50                   	push   %eax
   10c0c:	e8 cf 14 00 00       	call   120e0 <bound>
   10c11:	83 c4 10             	add    $0x10,%esp
   10c14:	a3 00 e0 01 00       	mov    %eax,0x1e000
	scroll_min_y = bound( min_y, s_min_y, max_y );
   10c19:	8b 15 24 e0 01 00    	mov    0x1e024,%edx
   10c1f:	a1 1c e0 01 00       	mov    0x1e01c,%eax
   10c24:	83 ec 04             	sub    $0x4,%esp
   10c27:	52                   	push   %edx
   10c28:	ff 75 0c             	pushl  0xc(%ebp)
   10c2b:	50                   	push   %eax
   10c2c:	e8 af 14 00 00       	call   120e0 <bound>
   10c31:	83 c4 10             	add    $0x10,%esp
   10c34:	a3 04 e0 01 00       	mov    %eax,0x1e004
	scroll_max_x = bound( scroll_min_x, s_max_x, max_x );
   10c39:	8b 15 20 e0 01 00    	mov    0x1e020,%edx
   10c3f:	a1 00 e0 01 00       	mov    0x1e000,%eax
   10c44:	83 ec 04             	sub    $0x4,%esp
   10c47:	52                   	push   %edx
   10c48:	ff 75 10             	pushl  0x10(%ebp)
   10c4b:	50                   	push   %eax
   10c4c:	e8 8f 14 00 00       	call   120e0 <bound>
   10c51:	83 c4 10             	add    $0x10,%esp
   10c54:	a3 08 e0 01 00       	mov    %eax,0x1e008
	scroll_max_y = bound( scroll_min_y, s_max_y, max_y );
   10c59:	8b 15 24 e0 01 00    	mov    0x1e024,%edx
   10c5f:	a1 04 e0 01 00       	mov    0x1e004,%eax
   10c64:	83 ec 04             	sub    $0x4,%esp
   10c67:	52                   	push   %edx
   10c68:	ff 75 14             	pushl  0x14(%ebp)
   10c6b:	50                   	push   %eax
   10c6c:	e8 6f 14 00 00       	call   120e0 <bound>
   10c71:	83 c4 10             	add    $0x10,%esp
   10c74:	a3 0c e0 01 00       	mov    %eax,0x1e00c
	curr_x = scroll_min_x;
   10c79:	a1 00 e0 01 00       	mov    0x1e000,%eax
   10c7e:	a3 10 e0 01 00       	mov    %eax,0x1e010
	curr_y = scroll_min_y;
   10c83:	a1 04 e0 01 00       	mov    0x1e004,%eax
   10c88:	a3 14 e0 01 00       	mov    %eax,0x1e014
	setcursor();
   10c8d:	e8 66 fe ff ff       	call   10af8 <setcursor>
}
   10c92:	90                   	nop
   10c93:	c9                   	leave  
   10c94:	c3                   	ret    

00010c95 <cio_moveto>:

/*
** Cursor movement in the scroll region
*/
void cio_moveto( unsigned int x, unsigned int y ) {
   10c95:	55                   	push   %ebp
   10c96:	89 e5                	mov    %esp,%ebp
   10c98:	83 ec 08             	sub    $0x8,%esp
	curr_x = bound( scroll_min_x, x + scroll_min_x, scroll_max_x );
   10c9b:	8b 15 08 e0 01 00    	mov    0x1e008,%edx
   10ca1:	8b 0d 00 e0 01 00    	mov    0x1e000,%ecx
   10ca7:	8b 45 08             	mov    0x8(%ebp),%eax
   10caa:	01 c1                	add    %eax,%ecx
   10cac:	a1 00 e0 01 00       	mov    0x1e000,%eax
   10cb1:	83 ec 04             	sub    $0x4,%esp
   10cb4:	52                   	push   %edx
   10cb5:	51                   	push   %ecx
   10cb6:	50                   	push   %eax
   10cb7:	e8 24 14 00 00       	call   120e0 <bound>
   10cbc:	83 c4 10             	add    $0x10,%esp
   10cbf:	a3 10 e0 01 00       	mov    %eax,0x1e010
	curr_y = bound( scroll_min_y, y + scroll_min_y, scroll_max_y );
   10cc4:	8b 15 0c e0 01 00    	mov    0x1e00c,%edx
   10cca:	8b 0d 04 e0 01 00    	mov    0x1e004,%ecx
   10cd0:	8b 45 0c             	mov    0xc(%ebp),%eax
   10cd3:	01 c1                	add    %eax,%ecx
   10cd5:	a1 04 e0 01 00       	mov    0x1e004,%eax
   10cda:	83 ec 04             	sub    $0x4,%esp
   10cdd:	52                   	push   %edx
   10cde:	51                   	push   %ecx
   10cdf:	50                   	push   %eax
   10ce0:	e8 fb 13 00 00       	call   120e0 <bound>
   10ce5:	83 c4 10             	add    $0x10,%esp
   10ce8:	a3 14 e0 01 00       	mov    %eax,0x1e014
	setcursor();
   10ced:	e8 06 fe ff ff       	call   10af8 <setcursor>
}
   10cf2:	90                   	nop
   10cf3:	c9                   	leave  
   10cf4:	c3                   	ret    

00010cf5 <cio_putchar_at>:

/*
** The putchar family
*/
void cio_putchar_at( unsigned int x, unsigned int y, unsigned int c ) {
   10cf5:	55                   	push   %ebp
   10cf6:	89 e5                	mov    %esp,%ebp
   10cf8:	83 ec 10             	sub    $0x10,%esp
	if( ( c & 0x7f ) == '\n' ) {
   10cfb:	8b 45 10             	mov    0x10(%ebp),%eax
   10cfe:	83 e0 7f             	and    $0x7f,%eax
   10d01:	83 f8 0a             	cmp    $0xa,%eax
   10d04:	75 53                	jne    10d59 <cio_putchar_at+0x64>
		/*
		** If we're in the scroll region, don't let this loop
		** leave it. If we're not in the scroll region, don't
		** let this loop enter it.
		*/
		if( x > scroll_max_x ) {
   10d06:	a1 08 e0 01 00       	mov    0x1e008,%eax
   10d0b:	39 45 08             	cmp    %eax,0x8(%ebp)
   10d0e:	76 0a                	jbe    10d1a <cio_putchar_at+0x25>
			limit = max_x;
   10d10:	a1 20 e0 01 00       	mov    0x1e020,%eax
   10d15:	89 45 fc             	mov    %eax,-0x4(%ebp)
   10d18:	eb 35                	jmp    10d4f <cio_putchar_at+0x5a>
		}
		else if( x >= scroll_min_x ) {
   10d1a:	a1 00 e0 01 00       	mov    0x1e000,%eax
   10d1f:	39 45 08             	cmp    %eax,0x8(%ebp)
   10d22:	72 0a                	jb     10d2e <cio_putchar_at+0x39>
			limit = scroll_max_x;
   10d24:	a1 08 e0 01 00       	mov    0x1e008,%eax
   10d29:	89 45 fc             	mov    %eax,-0x4(%ebp)
   10d2c:	eb 21                	jmp    10d4f <cio_putchar_at+0x5a>
		}
		else {
			limit = scroll_min_x - 1;
   10d2e:	a1 00 e0 01 00       	mov    0x1e000,%eax
   10d33:	83 e8 01             	sub    $0x1,%eax
   10d36:	89 45 fc             	mov    %eax,-0x4(%ebp)
		}
		while( x <= limit ) {
   10d39:	eb 14                	jmp    10d4f <cio_putchar_at+0x5a>
			putchar_at( x, y, ' ' );
   10d3b:	6a 20                	push   $0x20
   10d3d:	ff 75 0c             	pushl  0xc(%ebp)
   10d40:	ff 75 08             	pushl  0x8(%ebp)
   10d43:	e8 45 fe ff ff       	call   10b8d <putchar_at>
   10d48:	83 c4 0c             	add    $0xc,%esp
			x += 1;
   10d4b:	83 45 08 01          	addl   $0x1,0x8(%ebp)
		while( x <= limit ) {
   10d4f:	8b 45 08             	mov    0x8(%ebp),%eax
   10d52:	3b 45 fc             	cmp    -0x4(%ebp),%eax
   10d55:	76 e4                	jbe    10d3b <cio_putchar_at+0x46>
		}
	}
	else {
		putchar_at( x, y, c );
	}
}
   10d57:	eb 11                	jmp    10d6a <cio_putchar_at+0x75>
		putchar_at( x, y, c );
   10d59:	ff 75 10             	pushl  0x10(%ebp)
   10d5c:	ff 75 0c             	pushl  0xc(%ebp)
   10d5f:	ff 75 08             	pushl  0x8(%ebp)
   10d62:	e8 26 fe ff ff       	call   10b8d <putchar_at>
   10d67:	83 c4 0c             	add    $0xc,%esp
}
   10d6a:	90                   	nop
   10d6b:	c9                   	leave  
   10d6c:	c3                   	ret    

00010d6d <cio_putchar>:

#ifndef SA_DEBUG
void cio_putchar( unsigned int c ) {
   10d6d:	55                   	push   %ebp
   10d6e:	89 e5                	mov    %esp,%ebp
   10d70:	83 ec 08             	sub    $0x8,%esp
	/*
	** If we're off the bottom of the screen, scroll the window.
	*/
	if( curr_y > scroll_max_y ) {
   10d73:	8b 15 14 e0 01 00    	mov    0x1e014,%edx
   10d79:	a1 0c e0 01 00       	mov    0x1e00c,%eax
   10d7e:	39 c2                	cmp    %eax,%edx
   10d80:	76 25                	jbe    10da7 <cio_putchar+0x3a>
		cio_scroll( curr_y - scroll_max_y );
   10d82:	8b 15 14 e0 01 00    	mov    0x1e014,%edx
   10d88:	a1 0c e0 01 00       	mov    0x1e00c,%eax
   10d8d:	29 c2                	sub    %eax,%edx
   10d8f:	89 d0                	mov    %edx,%eax
   10d91:	83 ec 0c             	sub    $0xc,%esp
   10d94:	50                   	push   %eax
   10d95:	e8 65 02 00 00       	call   10fff <cio_scroll>
   10d9a:	83 c4 10             	add    $0x10,%esp
		curr_y = scroll_max_y;
   10d9d:	a1 0c e0 01 00       	mov    0x1e00c,%eax
   10da2:	a3 14 e0 01 00       	mov    %eax,0x1e014
	}

	switch( c & BMASK8 ) {
   10da7:	8b 45 08             	mov    0x8(%ebp),%eax
   10daa:	0f b6 c0             	movzbl %al,%eax
   10dad:	83 f8 0a             	cmp    $0xa,%eax
   10db0:	74 2e                	je     10de0 <cio_putchar+0x73>
   10db2:	83 f8 0d             	cmp    $0xd,%eax
   10db5:	74 51                	je     10e08 <cio_putchar+0x9b>
   10db7:	eb 5b                	jmp    10e14 <cio_putchar+0xa7>
		/*
		** Erase to the end of the line, then move to new line
		** (actual scroll is delayed until next output appears).
		*/
		while( curr_x <= scroll_max_x ) {
			putchar_at( curr_x, curr_y, ' ' );
   10db9:	8b 15 14 e0 01 00    	mov    0x1e014,%edx
   10dbf:	a1 10 e0 01 00       	mov    0x1e010,%eax
   10dc4:	83 ec 04             	sub    $0x4,%esp
   10dc7:	6a 20                	push   $0x20
   10dc9:	52                   	push   %edx
   10dca:	50                   	push   %eax
   10dcb:	e8 bd fd ff ff       	call   10b8d <putchar_at>
   10dd0:	83 c4 10             	add    $0x10,%esp
			curr_x += 1;
   10dd3:	a1 10 e0 01 00       	mov    0x1e010,%eax
   10dd8:	83 c0 01             	add    $0x1,%eax
   10ddb:	a3 10 e0 01 00       	mov    %eax,0x1e010
		while( curr_x <= scroll_max_x ) {
   10de0:	8b 15 10 e0 01 00    	mov    0x1e010,%edx
   10de6:	a1 08 e0 01 00       	mov    0x1e008,%eax
   10deb:	39 c2                	cmp    %eax,%edx
   10ded:	76 ca                	jbe    10db9 <cio_putchar+0x4c>
		}
		curr_x = scroll_min_x;
   10def:	a1 00 e0 01 00       	mov    0x1e000,%eax
   10df4:	a3 10 e0 01 00       	mov    %eax,0x1e010
		curr_y += 1;
   10df9:	a1 14 e0 01 00       	mov    0x1e014,%eax
   10dfe:	83 c0 01             	add    $0x1,%eax
   10e01:	a3 14 e0 01 00       	mov    %eax,0x1e014
		break;
   10e06:	eb 5b                	jmp    10e63 <cio_putchar+0xf6>

	case '\r':
		curr_x = scroll_min_x;
   10e08:	a1 00 e0 01 00       	mov    0x1e000,%eax
   10e0d:	a3 10 e0 01 00       	mov    %eax,0x1e010
		break;
   10e12:	eb 4f                	jmp    10e63 <cio_putchar+0xf6>

	default:
		putchar_at( curr_x, curr_y, c );
   10e14:	8b 15 14 e0 01 00    	mov    0x1e014,%edx
   10e1a:	a1 10 e0 01 00       	mov    0x1e010,%eax
   10e1f:	83 ec 04             	sub    $0x4,%esp
   10e22:	ff 75 08             	pushl  0x8(%ebp)
   10e25:	52                   	push   %edx
   10e26:	50                   	push   %eax
   10e27:	e8 61 fd ff ff       	call   10b8d <putchar_at>
   10e2c:	83 c4 10             	add    $0x10,%esp
		curr_x += 1;
   10e2f:	a1 10 e0 01 00       	mov    0x1e010,%eax
   10e34:	83 c0 01             	add    $0x1,%eax
   10e37:	a3 10 e0 01 00       	mov    %eax,0x1e010
		if( curr_x > scroll_max_x ) {
   10e3c:	8b 15 10 e0 01 00    	mov    0x1e010,%edx
   10e42:	a1 08 e0 01 00       	mov    0x1e008,%eax
   10e47:	39 c2                	cmp    %eax,%edx
   10e49:	76 17                	jbe    10e62 <cio_putchar+0xf5>
			curr_x = scroll_min_x;
   10e4b:	a1 00 e0 01 00       	mov    0x1e000,%eax
   10e50:	a3 10 e0 01 00       	mov    %eax,0x1e010
			curr_y += 1;
   10e55:	a1 14 e0 01 00       	mov    0x1e014,%eax
   10e5a:	83 c0 01             	add    $0x1,%eax
   10e5d:	a3 14 e0 01 00       	mov    %eax,0x1e014
		}
		break;
   10e62:	90                   	nop
	}
	setcursor();
   10e63:	e8 90 fc ff ff       	call   10af8 <setcursor>
}
   10e68:	90                   	nop
   10e69:	c9                   	leave  
   10e6a:	c3                   	ret    

00010e6b <cio_puts_at>:
#endif

/*
** The puts family
*/
void cio_puts_at( unsigned int x, unsigned int y, const char *str ) {
   10e6b:	55                   	push   %ebp
   10e6c:	89 e5                	mov    %esp,%ebp
   10e6e:	83 ec 10             	sub    $0x10,%esp
	unsigned int ch;

	while( (ch = *str++) != '\0' && x <= max_x ) {
   10e71:	eb 15                	jmp    10e88 <cio_puts_at+0x1d>
		cio_putchar_at( x, y, ch );
   10e73:	ff 75 fc             	pushl  -0x4(%ebp)
   10e76:	ff 75 0c             	pushl  0xc(%ebp)
   10e79:	ff 75 08             	pushl  0x8(%ebp)
   10e7c:	e8 74 fe ff ff       	call   10cf5 <cio_putchar_at>
   10e81:	83 c4 0c             	add    $0xc,%esp
		x += 1;
   10e84:	83 45 08 01          	addl   $0x1,0x8(%ebp)
	while( (ch = *str++) != '\0' && x <= max_x ) {
   10e88:	8b 45 10             	mov    0x10(%ebp),%eax
   10e8b:	8d 50 01             	lea    0x1(%eax),%edx
   10e8e:	89 55 10             	mov    %edx,0x10(%ebp)
   10e91:	0f b6 00             	movzbl (%eax),%eax
   10e94:	0f be c0             	movsbl %al,%eax
   10e97:	89 45 fc             	mov    %eax,-0x4(%ebp)
   10e9a:	83 7d fc 00          	cmpl   $0x0,-0x4(%ebp)
   10e9e:	74 0a                	je     10eaa <cio_puts_at+0x3f>
   10ea0:	a1 20 e0 01 00       	mov    0x1e020,%eax
   10ea5:	39 45 08             	cmp    %eax,0x8(%ebp)
   10ea8:	76 c9                	jbe    10e73 <cio_puts_at+0x8>
	}
}
   10eaa:	90                   	nop
   10eab:	c9                   	leave  
   10eac:	c3                   	ret    

00010ead <cio_puts>:

#ifndef SA_DEBUG
void cio_puts( const char *str ) {
   10ead:	55                   	push   %ebp
   10eae:	89 e5                	mov    %esp,%ebp
   10eb0:	83 ec 18             	sub    $0x18,%esp
	unsigned int ch;

	while( (ch = *str++) != '\0' ) {
   10eb3:	eb 0e                	jmp    10ec3 <cio_puts+0x16>
		cio_putchar( ch );
   10eb5:	83 ec 0c             	sub    $0xc,%esp
   10eb8:	ff 75 f4             	pushl  -0xc(%ebp)
   10ebb:	e8 ad fe ff ff       	call   10d6d <cio_putchar>
   10ec0:	83 c4 10             	add    $0x10,%esp
	while( (ch = *str++) != '\0' ) {
   10ec3:	8b 45 08             	mov    0x8(%ebp),%eax
   10ec6:	8d 50 01             	lea    0x1(%eax),%edx
   10ec9:	89 55 08             	mov    %edx,0x8(%ebp)
   10ecc:	0f b6 00             	movzbl (%eax),%eax
   10ecf:	0f be c0             	movsbl %al,%eax
   10ed2:	89 45 f4             	mov    %eax,-0xc(%ebp)
   10ed5:	83 7d f4 00          	cmpl   $0x0,-0xc(%ebp)
   10ed9:	75 da                	jne    10eb5 <cio_puts+0x8>
	}
}
   10edb:	90                   	nop
   10edc:	c9                   	leave  
   10edd:	c3                   	ret    

00010ede <cio_write>:
#endif

/*
** Write a "sized" buffer (like cio_puts(), but no NUL)
*/
void cio_write( const char *buf, int length ) {
   10ede:	55                   	push   %ebp
   10edf:	89 e5                	mov    %esp,%ebp
   10ee1:	83 ec 18             	sub    $0x18,%esp
	for( int i = 0; i < length; ++i ) {
   10ee4:	c7 45 f4 00 00 00 00 	movl   $0x0,-0xc(%ebp)
   10eeb:	eb 1e                	jmp    10f0b <cio_write+0x2d>
		cio_putchar( buf[i] );
   10eed:	8b 55 f4             	mov    -0xc(%ebp),%edx
   10ef0:	8b 45 08             	mov    0x8(%ebp),%eax
   10ef3:	01 d0                	add    %edx,%eax
   10ef5:	0f b6 00             	movzbl (%eax),%eax
   10ef8:	0f be c0             	movsbl %al,%eax
   10efb:	83 ec 0c             	sub    $0xc,%esp
   10efe:	50                   	push   %eax
   10eff:	e8 69 fe ff ff       	call   10d6d <cio_putchar>
   10f04:	83 c4 10             	add    $0x10,%esp
	for( int i = 0; i < length; ++i ) {
   10f07:	83 45 f4 01          	addl   $0x1,-0xc(%ebp)
   10f0b:	8b 45 f4             	mov    -0xc(%ebp),%eax
   10f0e:	3b 45 0c             	cmp    0xc(%ebp),%eax
   10f11:	7c da                	jl     10eed <cio_write+0xf>
	}
}
   10f13:	90                   	nop
   10f14:	c9                   	leave  
   10f15:	c3                   	ret    

00010f16 <cio_clearscroll>:

void cio_clearscroll( void ) {
   10f16:	55                   	push   %ebp
   10f17:	89 e5                	mov    %esp,%ebp
   10f19:	83 ec 10             	sub    $0x10,%esp
	unsigned int nchars = scroll_max_x - scroll_min_x + 1;
   10f1c:	8b 15 08 e0 01 00    	mov    0x1e008,%edx
   10f22:	a1 00 e0 01 00       	mov    0x1e000,%eax
   10f27:	29 c2                	sub    %eax,%edx
   10f29:	89 d0                	mov    %edx,%eax
   10f2b:	83 c0 01             	add    $0x1,%eax
   10f2e:	89 45 f0             	mov    %eax,-0x10(%ebp)
	unsigned int l;
	unsigned int c;

	for( l = scroll_min_y; l <= scroll_max_y; l += 1 ) {
   10f31:	a1 04 e0 01 00       	mov    0x1e004,%eax
   10f36:	89 45 fc             	mov    %eax,-0x4(%ebp)
   10f39:	eb 47                	jmp    10f82 <cio_clearscroll+0x6c>
		unsigned short *to = VIDEO_ADDR( scroll_min_x, l );
   10f3b:	8b 55 fc             	mov    -0x4(%ebp),%edx
   10f3e:	89 d0                	mov    %edx,%eax
   10f40:	c1 e0 02             	shl    $0x2,%eax
   10f43:	01 d0                	add    %edx,%eax
   10f45:	c1 e0 04             	shl    $0x4,%eax
   10f48:	89 c2                	mov    %eax,%edx
   10f4a:	a1 00 e0 01 00       	mov    0x1e000,%eax
   10f4f:	01 d0                	add    %edx,%eax
   10f51:	05 00 c0 05 00       	add    $0x5c000,%eax
   10f56:	01 c0                	add    %eax,%eax
   10f58:	89 45 f4             	mov    %eax,-0xc(%ebp)

		for( c = 0; c < nchars; c += 1 ) {
   10f5b:	c7 45 f8 00 00 00 00 	movl   $0x0,-0x8(%ebp)
   10f62:	eb 12                	jmp    10f76 <cio_clearscroll+0x60>
			*to++ = ' ' | VGA_DEFAULT;
   10f64:	8b 45 f4             	mov    -0xc(%ebp),%eax
   10f67:	8d 50 02             	lea    0x2(%eax),%edx
   10f6a:	89 55 f4             	mov    %edx,-0xc(%ebp)
   10f6d:	66 c7 00 20 07       	movw   $0x720,(%eax)
		for( c = 0; c < nchars; c += 1 ) {
   10f72:	83 45 f8 01          	addl   $0x1,-0x8(%ebp)
   10f76:	8b 45 f8             	mov    -0x8(%ebp),%eax
   10f79:	3b 45 f0             	cmp    -0x10(%ebp),%eax
   10f7c:	72 e6                	jb     10f64 <cio_clearscroll+0x4e>
	for( l = scroll_min_y; l <= scroll_max_y; l += 1 ) {
   10f7e:	83 45 fc 01          	addl   $0x1,-0x4(%ebp)
   10f82:	a1 0c e0 01 00       	mov    0x1e00c,%eax
   10f87:	39 45 fc             	cmp    %eax,-0x4(%ebp)
   10f8a:	76 af                	jbe    10f3b <cio_clearscroll+0x25>
		}
	}
}
   10f8c:	90                   	nop
   10f8d:	c9                   	leave  
   10f8e:	c3                   	ret    

00010f8f <cio_clearscreen>:

void cio_clearscreen( void ) {
   10f8f:	55                   	push   %ebp
   10f90:	89 e5                	mov    %esp,%ebp
   10f92:	83 ec 10             	sub    $0x10,%esp
	unsigned short *to = VIDEO_ADDR( min_x, min_y );
   10f95:	8b 15 1c e0 01 00    	mov    0x1e01c,%edx
   10f9b:	89 d0                	mov    %edx,%eax
   10f9d:	c1 e0 02             	shl    $0x2,%eax
   10fa0:	01 d0                	add    %edx,%eax
   10fa2:	c1 e0 04             	shl    $0x4,%eax
   10fa5:	89 c2                	mov    %eax,%edx
   10fa7:	a1 18 e0 01 00       	mov    0x1e018,%eax
   10fac:	01 d0                	add    %edx,%eax
   10fae:	05 00 c0 05 00       	add    $0x5c000,%eax
   10fb3:	01 c0                	add    %eax,%eax
   10fb5:	89 45 fc             	mov    %eax,-0x4(%ebp)
	unsigned int    nchars = ( max_y - min_y + 1 ) * ( max_x - min_x + 1 );
   10fb8:	8b 15 24 e0 01 00    	mov    0x1e024,%edx
   10fbe:	a1 1c e0 01 00       	mov    0x1e01c,%eax
   10fc3:	29 c2                	sub    %eax,%edx
   10fc5:	89 d0                	mov    %edx,%eax
   10fc7:	8d 48 01             	lea    0x1(%eax),%ecx
   10fca:	8b 15 20 e0 01 00    	mov    0x1e020,%edx
   10fd0:	a1 18 e0 01 00       	mov    0x1e018,%eax
   10fd5:	29 c2                	sub    %eax,%edx
   10fd7:	89 d0                	mov    %edx,%eax
   10fd9:	83 c0 01             	add    $0x1,%eax
   10fdc:	0f af c1             	imul   %ecx,%eax
   10fdf:	89 45 f8             	mov    %eax,-0x8(%ebp)

	while( nchars > 0 ) {
   10fe2:	eb 12                	jmp    10ff6 <cio_clearscreen+0x67>
		*to++ = ' ' | VGA_DEFAULT;
   10fe4:	8b 45 fc             	mov    -0x4(%ebp),%eax
   10fe7:	8d 50 02             	lea    0x2(%eax),%edx
   10fea:	89 55 fc             	mov    %edx,-0x4(%ebp)
   10fed:	66 c7 00 20 07       	movw   $0x720,(%eax)
		nchars -= 1;
   10ff2:	83 6d f8 01          	subl   $0x1,-0x8(%ebp)
	while( nchars > 0 ) {
   10ff6:	83 7d f8 00          	cmpl   $0x0,-0x8(%ebp)
   10ffa:	75 e8                	jne    10fe4 <cio_clearscreen+0x55>
	}
}
   10ffc:	90                   	nop
   10ffd:	c9                   	leave  
   10ffe:	c3                   	ret    

00010fff <cio_scroll>:


void cio_scroll( unsigned int lines ) {
   10fff:	55                   	push   %ebp
   11000:	89 e5                	mov    %esp,%ebp
   11002:	83 ec 20             	sub    $0x20,%esp
	unsigned short *from;
	unsigned short *to;
	int nchars = scroll_max_x - scroll_min_x + 1;
   11005:	8b 15 08 e0 01 00    	mov    0x1e008,%edx
   1100b:	a1 00 e0 01 00       	mov    0x1e000,%eax
   11010:	29 c2                	sub    %eax,%edx
   11012:	89 d0                	mov    %edx,%eax
   11014:	83 c0 01             	add    $0x1,%eax
   11017:	89 45 ec             	mov    %eax,-0x14(%ebp)
	int line, c;

	/*
	** If # of lines is the whole scrolling region or more, just clear.
	*/
	if( lines > scroll_max_y - scroll_min_y ) {
   1101a:	8b 15 0c e0 01 00    	mov    0x1e00c,%edx
   11020:	a1 04 e0 01 00       	mov    0x1e004,%eax
   11025:	29 c2                	sub    %eax,%edx
   11027:	89 d0                	mov    %edx,%eax
   11029:	39 45 08             	cmp    %eax,0x8(%ebp)
   1102c:	76 23                	jbe    11051 <cio_scroll+0x52>
		cio_clearscroll();
   1102e:	e8 e3 fe ff ff       	call   10f16 <cio_clearscroll>
		curr_x = scroll_min_x;
   11033:	a1 00 e0 01 00       	mov    0x1e000,%eax
   11038:	a3 10 e0 01 00       	mov    %eax,0x1e010
		curr_y = scroll_min_y;
   1103d:	a1 04 e0 01 00       	mov    0x1e004,%eax
   11042:	a3 14 e0 01 00       	mov    %eax,0x1e014
		setcursor();
   11047:	e8 ac fa ff ff       	call   10af8 <setcursor>
		return;
   1104c:	e9 ea 00 00 00       	jmp    1113b <cio_scroll+0x13c>
	}

	/*
	** Must copy it line by line.
	*/
	for( line = scroll_min_y; line <= scroll_max_y - lines; line += 1 ) {
   11051:	a1 04 e0 01 00       	mov    0x1e004,%eax
   11056:	89 45 f4             	mov    %eax,-0xc(%ebp)
   11059:	eb 76                	jmp    110d1 <cio_scroll+0xd2>
		from = VIDEO_ADDR( scroll_min_x, line + lines );
   1105b:	8b 55 f4             	mov    -0xc(%ebp),%edx
   1105e:	8b 45 08             	mov    0x8(%ebp),%eax
   11061:	01 c2                	add    %eax,%edx
   11063:	89 d0                	mov    %edx,%eax
   11065:	c1 e0 02             	shl    $0x2,%eax
   11068:	01 d0                	add    %edx,%eax
   1106a:	c1 e0 04             	shl    $0x4,%eax
   1106d:	89 c2                	mov    %eax,%edx
   1106f:	a1 00 e0 01 00       	mov    0x1e000,%eax
   11074:	01 d0                	add    %edx,%eax
   11076:	05 00 c0 05 00       	add    $0x5c000,%eax
   1107b:	01 c0                	add    %eax,%eax
   1107d:	89 45 fc             	mov    %eax,-0x4(%ebp)
		to = VIDEO_ADDR( scroll_min_x, line );
   11080:	8b 55 f4             	mov    -0xc(%ebp),%edx
   11083:	89 d0                	mov    %edx,%eax
   11085:	c1 e0 02             	shl    $0x2,%eax
   11088:	01 d0                	add    %edx,%eax
   1108a:	c1 e0 04             	shl    $0x4,%eax
   1108d:	89 c2                	mov    %eax,%edx
   1108f:	a1 00 e0 01 00       	mov    0x1e000,%eax
   11094:	01 d0                	add    %edx,%eax
   11096:	05 00 c0 05 00       	add    $0x5c000,%eax
   1109b:	01 c0                	add    %eax,%eax
   1109d:	89 45 f8             	mov    %eax,-0x8(%ebp)
		for( c = 0; c < nchars; c += 1 ) {
   110a0:	c7 45 f0 00 00 00 00 	movl   $0x0,-0x10(%ebp)
   110a7:	eb 1c                	jmp    110c5 <cio_scroll+0xc6>
			*to++ = *from++;
   110a9:	8b 55 fc             	mov    -0x4(%ebp),%edx
   110ac:	8d 42 02             	lea    0x2(%edx),%eax
   110af:	89 45 fc             	mov    %eax,-0x4(%ebp)
   110b2:	8b 45 f8             	mov    -0x8(%ebp),%eax
   110b5:	8d 48 02             	lea    0x2(%eax),%ecx
   110b8:	89 4d f8             	mov    %ecx,-0x8(%ebp)
   110bb:	0f b7 12             	movzwl (%edx),%edx
   110be:	66 89 10             	mov    %dx,(%eax)
		for( c = 0; c < nchars; c += 1 ) {
   110c1:	83 45 f0 01          	addl   $0x1,-0x10(%ebp)
   110c5:	8b 45 f0             	mov    -0x10(%ebp),%eax
   110c8:	3b 45 ec             	cmp    -0x14(%ebp),%eax
   110cb:	7c dc                	jl     110a9 <cio_scroll+0xaa>
	for( line = scroll_min_y; line <= scroll_max_y - lines; line += 1 ) {
   110cd:	83 45 f4 01          	addl   $0x1,-0xc(%ebp)
   110d1:	a1 0c e0 01 00       	mov    0x1e00c,%eax
   110d6:	2b 45 08             	sub    0x8(%ebp),%eax
   110d9:	89 c2                	mov    %eax,%edx
   110db:	8b 45 f4             	mov    -0xc(%ebp),%eax
   110de:	39 c2                	cmp    %eax,%edx
   110e0:	0f 83 75 ff ff ff    	jae    1105b <cio_scroll+0x5c>
		}
	}

	for( ; line <= scroll_max_y; line += 1 ) {
   110e6:	eb 47                	jmp    1112f <cio_scroll+0x130>
		to = VIDEO_ADDR( scroll_min_x, line );
   110e8:	8b 55 f4             	mov    -0xc(%ebp),%edx
   110eb:	89 d0                	mov    %edx,%eax
   110ed:	c1 e0 02             	shl    $0x2,%eax
   110f0:	01 d0                	add    %edx,%eax
   110f2:	c1 e0 04             	shl    $0x4,%eax
   110f5:	89 c2                	mov    %eax,%edx
   110f7:	a1 00 e0 01 00       	mov    0x1e000,%eax
   110fc:	01 d0                	add    %edx,%eax
   110fe:	05 00 c0 05 00       	add    $0x5c000,%eax
   11103:	01 c0                	add    %eax,%eax
   11105:	89 45 f8             	mov    %eax,-0x8(%ebp)
		for( c = 0; c < nchars; c += 1 ) {
   11108:	c7 45 f0 00 00 00 00 	movl   $0x0,-0x10(%ebp)
   1110f:	eb 12                	jmp    11123 <cio_scroll+0x124>
			*to++ = ' ' | VGA_DEFAULT;
   11111:	8b 45 f8             	mov    -0x8(%ebp),%eax
   11114:	8d 50 02             	lea    0x2(%eax),%edx
   11117:	89 55 f8             	mov    %edx,-0x8(%ebp)
   1111a:	66 c7 00 20 07       	movw   $0x720,(%eax)
		for( c = 0; c < nchars; c += 1 ) {
   1111f:	83 45 f0 01          	addl   $0x1,-0x10(%ebp)
   11123:	8b 45 f0             	mov    -0x10(%ebp),%eax
   11126:	3b 45 ec             	cmp    -0x14(%ebp),%eax
   11129:	7c e6                	jl     11111 <cio_scroll+0x112>
	for( ; line <= scroll_max_y; line += 1 ) {
   1112b:	83 45 f4 01          	addl   $0x1,-0xc(%ebp)
   1112f:	8b 55 f4             	mov    -0xc(%ebp),%edx
   11132:	a1 0c e0 01 00       	mov    0x1e00c,%eax
   11137:	39 c2                	cmp    %eax,%edx
   11139:	76 ad                	jbe    110e8 <cio_scroll+0xe9>
		}
	}
}
   1113b:	c9                   	leave  
   1113c:	c3                   	ret    

0001113d <mypad>:

static int mypad( int x, int y, int extra, int padchar ) {
   1113d:	55                   	push   %ebp
   1113e:	89 e5                	mov    %esp,%ebp
   11140:	83 ec 08             	sub    $0x8,%esp
	while( extra > 0 ) {
   11143:	eb 39                	jmp    1117e <mypad+0x41>
		if( x != -1 || y != -1 ) {
   11145:	83 7d 08 ff          	cmpl   $0xffffffff,0x8(%ebp)
   11149:	75 06                	jne    11151 <mypad+0x14>
   1114b:	83 7d 0c ff          	cmpl   $0xffffffff,0xc(%ebp)
   1114f:	74 1a                	je     1116b <mypad+0x2e>
			cio_putchar_at( x, y, padchar );
   11151:	8b 4d 14             	mov    0x14(%ebp),%ecx
   11154:	8b 55 0c             	mov    0xc(%ebp),%edx
   11157:	8b 45 08             	mov    0x8(%ebp),%eax
   1115a:	51                   	push   %ecx
   1115b:	52                   	push   %edx
   1115c:	50                   	push   %eax
   1115d:	e8 93 fb ff ff       	call   10cf5 <cio_putchar_at>
   11162:	83 c4 0c             	add    $0xc,%esp
			x += 1;
   11165:	83 45 08 01          	addl   $0x1,0x8(%ebp)
   11169:	eb 0f                	jmp    1117a <mypad+0x3d>
		}
		else {
			cio_putchar( padchar );
   1116b:	8b 45 14             	mov    0x14(%ebp),%eax
   1116e:	83 ec 0c             	sub    $0xc,%esp
   11171:	50                   	push   %eax
   11172:	e8 f6 fb ff ff       	call   10d6d <cio_putchar>
   11177:	83 c4 10             	add    $0x10,%esp
		}
		extra -= 1;
   1117a:	83 6d 10 01          	subl   $0x1,0x10(%ebp)
	while( extra > 0 ) {
   1117e:	83 7d 10 00          	cmpl   $0x0,0x10(%ebp)
   11182:	7f c1                	jg     11145 <mypad+0x8>
	}
	return x;
   11184:	8b 45 08             	mov    0x8(%ebp),%eax
}
   11187:	c9                   	leave  
   11188:	c3                   	ret    

00011189 <mypadstr>:

static int mypadstr( int x, int y, char *str, int len, int width,
				   int leftadjust, int padchar ) {
   11189:	55                   	push   %ebp
   1118a:	89 e5                	mov    %esp,%ebp
   1118c:	83 ec 18             	sub    $0x18,%esp
	int extra;

	if( len < 0 ) {
   1118f:	83 7d 14 00          	cmpl   $0x0,0x14(%ebp)
   11193:	79 11                	jns    111a6 <mypadstr+0x1d>
		len = strlen( str );
   11195:	83 ec 0c             	sub    $0xc,%esp
   11198:	ff 75 10             	pushl  0x10(%ebp)
   1119b:	e8 d4 18 00 00       	call   12a74 <strlen>
   111a0:	83 c4 10             	add    $0x10,%esp
   111a3:	89 45 14             	mov    %eax,0x14(%ebp)
	}
	extra = width - len;
   111a6:	8b 45 18             	mov    0x18(%ebp),%eax
   111a9:	2b 45 14             	sub    0x14(%ebp),%eax
   111ac:	89 45 f4             	mov    %eax,-0xc(%ebp)
	if( extra > 0 && !leftadjust ) {
   111af:	83 7d f4 00          	cmpl   $0x0,-0xc(%ebp)
   111b3:	7e 1d                	jle    111d2 <mypadstr+0x49>
   111b5:	83 7d 1c 00          	cmpl   $0x0,0x1c(%ebp)
   111b9:	75 17                	jne    111d2 <mypadstr+0x49>
		x = mypad( x, y, extra, padchar );
   111bb:	ff 75 20             	pushl  0x20(%ebp)
   111be:	ff 75 f4             	pushl  -0xc(%ebp)
   111c1:	ff 75 0c             	pushl  0xc(%ebp)
   111c4:	ff 75 08             	pushl  0x8(%ebp)
   111c7:	e8 71 ff ff ff       	call   1113d <mypad>
   111cc:	83 c4 10             	add    $0x10,%esp
   111cf:	89 45 08             	mov    %eax,0x8(%ebp)
	}
	if( x != -1 || y != -1 ) {
   111d2:	83 7d 08 ff          	cmpl   $0xffffffff,0x8(%ebp)
   111d6:	75 06                	jne    111de <mypadstr+0x55>
   111d8:	83 7d 0c ff          	cmpl   $0xffffffff,0xc(%ebp)
   111dc:	74 1e                	je     111fc <mypadstr+0x73>
		cio_puts_at( x, y, str );
   111de:	8b 55 0c             	mov    0xc(%ebp),%edx
   111e1:	8b 45 08             	mov    0x8(%ebp),%eax
   111e4:	83 ec 04             	sub    $0x4,%esp
   111e7:	ff 75 10             	pushl  0x10(%ebp)
   111ea:	52                   	push   %edx
   111eb:	50                   	push   %eax
   111ec:	e8 7a fc ff ff       	call   10e6b <cio_puts_at>
   111f1:	83 c4 10             	add    $0x10,%esp
		x += len;
   111f4:	8b 45 14             	mov    0x14(%ebp),%eax
   111f7:	01 45 08             	add    %eax,0x8(%ebp)
   111fa:	eb 0e                	jmp    1120a <mypadstr+0x81>
	}
	else {
		cio_puts( str );
   111fc:	83 ec 0c             	sub    $0xc,%esp
   111ff:	ff 75 10             	pushl  0x10(%ebp)
   11202:	e8 a6 fc ff ff       	call   10ead <cio_puts>
   11207:	83 c4 10             	add    $0x10,%esp
	}
	if( extra > 0 && leftadjust ) {
   1120a:	83 7d f4 00          	cmpl   $0x0,-0xc(%ebp)
   1120e:	7e 1d                	jle    1122d <mypadstr+0xa4>
   11210:	83 7d 1c 00          	cmpl   $0x0,0x1c(%ebp)
   11214:	74 17                	je     1122d <mypadstr+0xa4>
		x = mypad( x, y, extra, padchar );
   11216:	ff 75 20             	pushl  0x20(%ebp)
   11219:	ff 75 f4             	pushl  -0xc(%ebp)
   1121c:	ff 75 0c             	pushl  0xc(%ebp)
   1121f:	ff 75 08             	pushl  0x8(%ebp)
   11222:	e8 16 ff ff ff       	call   1113d <mypad>
   11227:	83 c4 10             	add    $0x10,%esp
   1122a:	89 45 08             	mov    %eax,0x8(%ebp)
	}
	return x;
   1122d:	8b 45 08             	mov    0x8(%ebp),%eax
}
   11230:	c9                   	leave  
   11231:	c3                   	ret    

00011232 <do_printf>:

static void do_printf( int x, int y, char **f ) {
   11232:	55                   	push   %ebp
   11233:	89 e5                	mov    %esp,%ebp
   11235:	83 ec 38             	sub    $0x38,%esp
	char *fmt = *f;
   11238:	8b 45 10             	mov    0x10(%ebp),%eax
   1123b:	8b 00                	mov    (%eax),%eax
   1123d:	89 45 f4             	mov    %eax,-0xc(%ebp)

	/*
	** Get characters from the format string and process them
	*/

	ap = (int *)( f + 1 );
   11240:	8b 45 10             	mov    0x10(%ebp),%eax
   11243:	83 c0 04             	add    $0x4,%eax
   11246:	89 45 f0             	mov    %eax,-0x10(%ebp)

	while( (ch = *fmt++) != '\0' ) {
   11249:	e9 9d 02 00 00       	jmp    114eb <do_printf+0x2b9>

		/*
		** Is it the start of a format code?
		*/

		if( ch == '%' ) {
   1124e:	80 7d ef 25          	cmpb   $0x25,-0x11(%ebp)
   11252:	0f 85 3b 02 00 00    	jne    11493 <do_printf+0x261>
			** Yes, get the padding and width options (if there).
			** Alignment must come at the beginning, then fill,
			** then width.
			*/

			leftadjust = 0;
   11258:	c7 45 e8 00 00 00 00 	movl   $0x0,-0x18(%ebp)
			padchar = ' ';
   1125f:	c7 45 e0 20 00 00 00 	movl   $0x20,-0x20(%ebp)
			width = 0;
   11266:	c7 45 e4 00 00 00 00 	movl   $0x0,-0x1c(%ebp)

			ch = *fmt++;
   1126d:	8b 45 f4             	mov    -0xc(%ebp),%eax
   11270:	8d 50 01             	lea    0x1(%eax),%edx
   11273:	89 55 f4             	mov    %edx,-0xc(%ebp)
   11276:	0f b6 00             	movzbl (%eax),%eax
   11279:	88 45 ef             	mov    %al,-0x11(%ebp)

			if( ch == '-' ) {
   1127c:	80 7d ef 2d          	cmpb   $0x2d,-0x11(%ebp)
   11280:	75 16                	jne    11298 <do_printf+0x66>
				leftadjust = 1;
   11282:	c7 45 e8 01 00 00 00 	movl   $0x1,-0x18(%ebp)
				ch = *fmt++;
   11289:	8b 45 f4             	mov    -0xc(%ebp),%eax
   1128c:	8d 50 01             	lea    0x1(%eax),%edx
   1128f:	89 55 f4             	mov    %edx,-0xc(%ebp)
   11292:	0f b6 00             	movzbl (%eax),%eax
   11295:	88 45 ef             	mov    %al,-0x11(%ebp)
			}

			if( ch == '0' ) {
   11298:	80 7d ef 30          	cmpb   $0x30,-0x11(%ebp)
   1129c:	75 40                	jne    112de <do_printf+0xac>
				padchar = '0';
   1129e:	c7 45 e0 30 00 00 00 	movl   $0x30,-0x20(%ebp)
				ch = *fmt++;
   112a5:	8b 45 f4             	mov    -0xc(%ebp),%eax
   112a8:	8d 50 01             	lea    0x1(%eax),%edx
   112ab:	89 55 f4             	mov    %edx,-0xc(%ebp)
   112ae:	0f b6 00             	movzbl (%eax),%eax
   112b1:	88 45 ef             	mov    %al,-0x11(%ebp)
			}

			while( ch >= '0' && ch <= '9' ) {
   112b4:	eb 28                	jmp    112de <do_printf+0xac>
				width *= 10;
   112b6:	8b 55 e4             	mov    -0x1c(%ebp),%edx
   112b9:	89 d0                	mov    %edx,%eax
   112bb:	c1 e0 02             	shl    $0x2,%eax
   112be:	01 d0                	add    %edx,%eax
   112c0:	01 c0                	add    %eax,%eax
   112c2:	89 45 e4             	mov    %eax,-0x1c(%ebp)
				width += ch - '0';
   112c5:	0f be 45 ef          	movsbl -0x11(%ebp),%eax
   112c9:	83 e8 30             	sub    $0x30,%eax
   112cc:	01 45 e4             	add    %eax,-0x1c(%ebp)
				ch = *fmt++;
   112cf:	8b 45 f4             	mov    -0xc(%ebp),%eax
   112d2:	8d 50 01             	lea    0x1(%eax),%edx
   112d5:	89 55 f4             	mov    %edx,-0xc(%ebp)
   112d8:	0f b6 00             	movzbl (%eax),%eax
   112db:	88 45 ef             	mov    %al,-0x11(%ebp)
			while( ch >= '0' && ch <= '9' ) {
   112de:	80 7d ef 2f          	cmpb   $0x2f,-0x11(%ebp)
   112e2:	7e 06                	jle    112ea <do_printf+0xb8>
   112e4:	80 7d ef 39          	cmpb   $0x39,-0x11(%ebp)
   112e8:	7e cc                	jle    112b6 <do_printf+0x84>
			}

			/*
			** What data type do we have?
			*/
			switch( ch ) {
   112ea:	0f be 45 ef          	movsbl -0x11(%ebp),%eax
   112ee:	83 e8 63             	sub    $0x63,%eax
   112f1:	83 f8 15             	cmp    $0x15,%eax
   112f4:	0f 87 f1 01 00 00    	ja     114eb <do_printf+0x2b9>
   112fa:	8b 04 85 18 a9 01 00 	mov    0x1a918(,%eax,4),%eax
   11301:	ff e0                	jmp    *%eax

			case 'c':
				// ch = *( (int *)ap )++;
				ch = *ap++;
   11303:	8b 45 f0             	mov    -0x10(%ebp),%eax
   11306:	8d 50 04             	lea    0x4(%eax),%edx
   11309:	89 55 f0             	mov    %edx,-0x10(%ebp)
   1130c:	8b 00                	mov    (%eax),%eax
   1130e:	88 45 ef             	mov    %al,-0x11(%ebp)
				buf[ 0 ] = ch;
   11311:	0f b6 45 ef          	movzbl -0x11(%ebp),%eax
   11315:	88 45 cc             	mov    %al,-0x34(%ebp)
				buf[ 1 ] = '\0';
   11318:	c6 45 cd 00          	movb   $0x0,-0x33(%ebp)
				x = mypadstr( x, y, buf, 1, width, leftadjust, padchar );
   1131c:	83 ec 04             	sub    $0x4,%esp
   1131f:	ff 75 e0             	pushl  -0x20(%ebp)
   11322:	ff 75 e8             	pushl  -0x18(%ebp)
   11325:	ff 75 e4             	pushl  -0x1c(%ebp)
   11328:	6a 01                	push   $0x1
   1132a:	8d 45 cc             	lea    -0x34(%ebp),%eax
   1132d:	50                   	push   %eax
   1132e:	ff 75 0c             	pushl  0xc(%ebp)
   11331:	ff 75 08             	pushl  0x8(%ebp)
   11334:	e8 50 fe ff ff       	call   11189 <mypadstr>
   11339:	83 c4 20             	add    $0x20,%esp
   1133c:	89 45 08             	mov    %eax,0x8(%ebp)
				break;
   1133f:	e9 a7 01 00 00       	jmp    114eb <do_printf+0x2b9>

			case 'd':
				// len = cvtdec( buf, *( (int *)ap )++ );
				len = cvtdec( buf, *ap++ );
   11344:	8b 45 f0             	mov    -0x10(%ebp),%eax
   11347:	8d 50 04             	lea    0x4(%eax),%edx
   1134a:	89 55 f0             	mov    %edx,-0x10(%ebp)
   1134d:	8b 00                	mov    (%eax),%eax
   1134f:	83 ec 08             	sub    $0x8,%esp
   11352:	50                   	push   %eax
   11353:	8d 45 cc             	lea    -0x34(%ebp),%eax
   11356:	50                   	push   %eax
   11357:	e8 a8 0d 00 00       	call   12104 <cvtdec>
   1135c:	83 c4 10             	add    $0x10,%esp
   1135f:	89 45 dc             	mov    %eax,-0x24(%ebp)
				x = mypadstr( x, y, buf, len, width, leftadjust, padchar );
   11362:	83 ec 04             	sub    $0x4,%esp
   11365:	ff 75 e0             	pushl  -0x20(%ebp)
   11368:	ff 75 e8             	pushl  -0x18(%ebp)
   1136b:	ff 75 e4             	pushl  -0x1c(%ebp)
   1136e:	ff 75 dc             	pushl  -0x24(%ebp)
   11371:	8d 45 cc             	lea    -0x34(%ebp),%eax
   11374:	50                   	push   %eax
   11375:	ff 75 0c             	pushl  0xc(%ebp)
   11378:	ff 75 08             	pushl  0x8(%ebp)
   1137b:	e8 09 fe ff ff       	call   11189 <mypadstr>
   11380:	83 c4 20             	add    $0x20,%esp
   11383:	89 45 08             	mov    %eax,0x8(%ebp)
				break;
   11386:	e9 60 01 00 00       	jmp    114eb <do_printf+0x2b9>

			case 's':
				// str = *( (char **)ap )++;
				str = (char *) (*ap++);
   1138b:	8b 45 f0             	mov    -0x10(%ebp),%eax
   1138e:	8d 50 04             	lea    0x4(%eax),%edx
   11391:	89 55 f0             	mov    %edx,-0x10(%ebp)
   11394:	8b 00                	mov    (%eax),%eax
   11396:	89 45 d8             	mov    %eax,-0x28(%ebp)
				x = mypadstr( x, y, str, -1, width, leftadjust, padchar );
   11399:	83 ec 04             	sub    $0x4,%esp
   1139c:	ff 75 e0             	pushl  -0x20(%ebp)
   1139f:	ff 75 e8             	pushl  -0x18(%ebp)
   113a2:	ff 75 e4             	pushl  -0x1c(%ebp)
   113a5:	6a ff                	push   $0xffffffff
   113a7:	ff 75 d8             	pushl  -0x28(%ebp)
   113aa:	ff 75 0c             	pushl  0xc(%ebp)
   113ad:	ff 75 08             	pushl  0x8(%ebp)
   113b0:	e8 d4 fd ff ff       	call   11189 <mypadstr>
   113b5:	83 c4 20             	add    $0x20,%esp
   113b8:	89 45 08             	mov    %eax,0x8(%ebp)
				break;
   113bb:	e9 2b 01 00 00       	jmp    114eb <do_printf+0x2b9>

			case 'x':
				// len = cvthex( buf, *( (int *)ap )++ );
				len = cvthex( buf, *ap++ );
   113c0:	8b 45 f0             	mov    -0x10(%ebp),%eax
   113c3:	8d 50 04             	lea    0x4(%eax),%edx
   113c6:	89 55 f0             	mov    %edx,-0x10(%ebp)
   113c9:	8b 00                	mov    (%eax),%eax
   113cb:	83 ec 08             	sub    $0x8,%esp
   113ce:	50                   	push   %eax
   113cf:	8d 45 cc             	lea    -0x34(%ebp),%eax
   113d2:	50                   	push   %eax
   113d3:	e8 fc 0d 00 00       	call   121d4 <cvthex>
   113d8:	83 c4 10             	add    $0x10,%esp
   113db:	89 45 dc             	mov    %eax,-0x24(%ebp)
				x = mypadstr( x, y, buf, len, width, leftadjust, padchar );
   113de:	83 ec 04             	sub    $0x4,%esp
   113e1:	ff 75 e0             	pushl  -0x20(%ebp)
   113e4:	ff 75 e8             	pushl  -0x18(%ebp)
   113e7:	ff 75 e4             	pushl  -0x1c(%ebp)
   113ea:	ff 75 dc             	pushl  -0x24(%ebp)
   113ed:	8d 45 cc             	lea    -0x34(%ebp),%eax
   113f0:	50                   	push   %eax
   113f1:	ff 75 0c             	pushl  0xc(%ebp)
   113f4:	ff 75 08             	pushl  0x8(%ebp)
   113f7:	e8 8d fd ff ff       	call   11189 <mypadstr>
   113fc:	83 c4 20             	add    $0x20,%esp
   113ff:	89 45 08             	mov    %eax,0x8(%ebp)
				break;
   11402:	e9 e4 00 00 00       	jmp    114eb <do_printf+0x2b9>

			case 'o':
				// len = cvtoct( buf, *( (int *)ap )++ );
				len = cvtoct( buf, *ap++ );
   11407:	8b 45 f0             	mov    -0x10(%ebp),%eax
   1140a:	8d 50 04             	lea    0x4(%eax),%edx
   1140d:	89 55 f0             	mov    %edx,-0x10(%ebp)
   11410:	8b 00                	mov    (%eax),%eax
   11412:	83 ec 08             	sub    $0x8,%esp
   11415:	50                   	push   %eax
   11416:	8d 45 cc             	lea    -0x34(%ebp),%eax
   11419:	50                   	push   %eax
   1141a:	e8 3f 0e 00 00       	call   1225e <cvtoct>
   1141f:	83 c4 10             	add    $0x10,%esp
   11422:	89 45 dc             	mov    %eax,-0x24(%ebp)
				x = mypadstr( x, y, buf, len, width, leftadjust, padchar );
   11425:	83 ec 04             	sub    $0x4,%esp
   11428:	ff 75 e0             	pushl  -0x20(%ebp)
   1142b:	ff 75 e8             	pushl  -0x18(%ebp)
   1142e:	ff 75 e4             	pushl  -0x1c(%ebp)
   11431:	ff 75 dc             	pushl  -0x24(%ebp)
   11434:	8d 45 cc             	lea    -0x34(%ebp),%eax
   11437:	50                   	push   %eax
   11438:	ff 75 0c             	pushl  0xc(%ebp)
   1143b:	ff 75 08             	pushl  0x8(%ebp)
   1143e:	e8 46 fd ff ff       	call   11189 <mypadstr>
   11443:	83 c4 20             	add    $0x20,%esp
   11446:	89 45 08             	mov    %eax,0x8(%ebp)
				break;
   11449:	e9 9d 00 00 00       	jmp    114eb <do_printf+0x2b9>

			case 'u':
				len = cvtuns( buf, *ap++ );
   1144e:	8b 45 f0             	mov    -0x10(%ebp),%eax
   11451:	8d 50 04             	lea    0x4(%eax),%edx
   11454:	89 55 f0             	mov    %edx,-0x10(%ebp)
   11457:	8b 00                	mov    (%eax),%eax
   11459:	83 ec 08             	sub    $0x8,%esp
   1145c:	50                   	push   %eax
   1145d:	8d 45 cc             	lea    -0x34(%ebp),%eax
   11460:	50                   	push   %eax
   11461:	e8 82 0e 00 00       	call   122e8 <cvtuns>
   11466:	83 c4 10             	add    $0x10,%esp
   11469:	89 45 dc             	mov    %eax,-0x24(%ebp)
				x = mypadstr( x, y, buf, len, width, leftadjust, padchar );
   1146c:	83 ec 04             	sub    $0x4,%esp
   1146f:	ff 75 e0             	pushl  -0x20(%ebp)
   11472:	ff 75 e8             	pushl  -0x18(%ebp)
   11475:	ff 75 e4             	pushl  -0x1c(%ebp)
   11478:	ff 75 dc             	pushl  -0x24(%ebp)
   1147b:	8d 45 cc             	lea    -0x34(%ebp),%eax
   1147e:	50                   	push   %eax
   1147f:	ff 75 0c             	pushl  0xc(%ebp)
   11482:	ff 75 08             	pushl  0x8(%ebp)
   11485:	e8 ff fc ff ff       	call   11189 <mypadstr>
   1148a:	83 c4 20             	add    $0x20,%esp
   1148d:	89 45 08             	mov    %eax,0x8(%ebp)
				break;
   11490:	90                   	nop
   11491:	eb 58                	jmp    114eb <do_printf+0x2b9>

			/*
			** No - just print it normally.
			*/

			if( x != -1 || y != -1 ) {
   11493:	83 7d 08 ff          	cmpl   $0xffffffff,0x8(%ebp)
   11497:	75 06                	jne    1149f <do_printf+0x26d>
   11499:	83 7d 0c ff          	cmpl   $0xffffffff,0xc(%ebp)
   1149d:	74 3c                	je     114db <do_printf+0x2a9>
				cio_putchar_at( x, y, ch );
   1149f:	0f be 4d ef          	movsbl -0x11(%ebp),%ecx
   114a3:	8b 55 0c             	mov    0xc(%ebp),%edx
   114a6:	8b 45 08             	mov    0x8(%ebp),%eax
   114a9:	83 ec 04             	sub    $0x4,%esp
   114ac:	51                   	push   %ecx
   114ad:	52                   	push   %edx
   114ae:	50                   	push   %eax
   114af:	e8 41 f8 ff ff       	call   10cf5 <cio_putchar_at>
   114b4:	83 c4 10             	add    $0x10,%esp
				switch( ch ) {
   114b7:	0f be 45 ef          	movsbl -0x11(%ebp),%eax
   114bb:	83 f8 0a             	cmp    $0xa,%eax
   114be:	74 07                	je     114c7 <do_printf+0x295>
   114c0:	83 f8 0d             	cmp    $0xd,%eax
   114c3:	74 06                	je     114cb <do_printf+0x299>
   114c5:	eb 0e                	jmp    114d5 <do_printf+0x2a3>
				case '\n':
					y += 1;
   114c7:	83 45 0c 01          	addl   $0x1,0xc(%ebp)
					/* FALL THRU */

				case '\r':
					x = scroll_min_x;
   114cb:	a1 00 e0 01 00       	mov    0x1e000,%eax
   114d0:	89 45 08             	mov    %eax,0x8(%ebp)
					break;
   114d3:	eb 04                	jmp    114d9 <do_printf+0x2a7>

				default:
					x += 1;
   114d5:	83 45 08 01          	addl   $0x1,0x8(%ebp)
				}
			}
   114d9:	eb 10                	jmp    114eb <do_printf+0x2b9>
			else {
				cio_putchar( ch );
   114db:	0f be 45 ef          	movsbl -0x11(%ebp),%eax
   114df:	83 ec 0c             	sub    $0xc,%esp
   114e2:	50                   	push   %eax
   114e3:	e8 85 f8 ff ff       	call   10d6d <cio_putchar>
   114e8:	83 c4 10             	add    $0x10,%esp
	while( (ch = *fmt++) != '\0' ) {
   114eb:	8b 45 f4             	mov    -0xc(%ebp),%eax
   114ee:	8d 50 01             	lea    0x1(%eax),%edx
   114f1:	89 55 f4             	mov    %edx,-0xc(%ebp)
   114f4:	0f b6 00             	movzbl (%eax),%eax
   114f7:	88 45 ef             	mov    %al,-0x11(%ebp)
   114fa:	80 7d ef 00          	cmpb   $0x0,-0x11(%ebp)
   114fe:	0f 85 4a fd ff ff    	jne    1124e <do_printf+0x1c>
			}
		}
	}
}
   11504:	90                   	nop
   11505:	c9                   	leave  
   11506:	c3                   	ret    

00011507 <cio_printf_at>:

void cio_printf_at( unsigned int x, unsigned int y, char *fmt, ... ) {
   11507:	55                   	push   %ebp
   11508:	89 e5                	mov    %esp,%ebp
   1150a:	83 ec 08             	sub    $0x8,%esp
	do_printf( x, y, &fmt );
   1150d:	8b 55 0c             	mov    0xc(%ebp),%edx
   11510:	8b 45 08             	mov    0x8(%ebp),%eax
   11513:	83 ec 04             	sub    $0x4,%esp
   11516:	8d 4d 10             	lea    0x10(%ebp),%ecx
   11519:	51                   	push   %ecx
   1151a:	52                   	push   %edx
   1151b:	50                   	push   %eax
   1151c:	e8 11 fd ff ff       	call   11232 <do_printf>
   11521:	83 c4 10             	add    $0x10,%esp
}
   11524:	90                   	nop
   11525:	c9                   	leave  
   11526:	c3                   	ret    

00011527 <cio_printf>:

void cio_printf( char *fmt, ... ) {
   11527:	55                   	push   %ebp
   11528:	89 e5                	mov    %esp,%ebp
   1152a:	83 ec 08             	sub    $0x8,%esp
	do_printf( -1, -1, &fmt );
   1152d:	83 ec 04             	sub    $0x4,%esp
   11530:	8d 45 08             	lea    0x8(%ebp),%eax
   11533:	50                   	push   %eax
   11534:	6a ff                	push   $0xffffffff
   11536:	6a ff                	push   $0xffffffff
   11538:	e8 f5 fc ff ff       	call   11232 <do_printf>
   1153d:	83 c4 10             	add    $0x10,%esp
}
   11540:	90                   	nop
   11541:	c9                   	leave  
   11542:	c3                   	ret    

00011543 <increment>:

static char input_buffer[ C_BUFSIZE ];
static volatile char *next_char = input_buffer;
static volatile char *next_space = input_buffer;

static volatile char *increment( volatile char *pointer ) {
   11543:	55                   	push   %ebp
   11544:	89 e5                	mov    %esp,%ebp
	if( ++pointer >= input_buffer + C_BUFSIZE ) {
   11546:	83 45 08 01          	addl   $0x1,0x8(%ebp)
   1154a:	b8 08 e1 01 00       	mov    $0x1e108,%eax
   1154f:	39 45 08             	cmp    %eax,0x8(%ebp)
   11552:	72 07                	jb     1155b <increment+0x18>
		pointer = input_buffer;
   11554:	c7 45 08 40 e0 01 00 	movl   $0x1e040,0x8(%ebp)
	}
	return pointer;
   1155b:	8b 45 08             	mov    0x8(%ebp),%eax
}
   1155e:	5d                   	pop    %ebp
   1155f:	c3                   	ret    

00011560 <input_scan_code>:

static int input_scan_code( int code ) {
   11560:	55                   	push   %ebp
   11561:	89 e5                	mov    %esp,%ebp
   11563:	83 ec 10             	sub    $0x10,%esp
	static  int shift = 0;
	static  int ctrl_mask = BMASK8;
	int rval = -1;
   11566:	c7 45 fc ff ff ff ff 	movl   $0xffffffff,-0x4(%ebp)

	/*
	** Do the shift processing
	*/
	code &= BMASK8;
   1156d:	81 65 08 ff 00 00 00 	andl   $0xff,0x8(%ebp)
	switch( code ) {
   11574:	8b 45 08             	mov    0x8(%ebp),%eax
   11577:	83 f8 36             	cmp    $0x36,%eax
   1157a:	74 28                	je     115a4 <input_scan_code+0x44>
   1157c:	83 f8 36             	cmp    $0x36,%eax
   1157f:	7f 0c                	jg     1158d <input_scan_code+0x2d>
   11581:	83 f8 1d             	cmp    $0x1d,%eax
   11584:	74 3c                	je     115c2 <input_scan_code+0x62>
   11586:	83 f8 2a             	cmp    $0x2a,%eax
   11589:	74 19                	je     115a4 <input_scan_code+0x44>
   1158b:	eb 4d                	jmp    115da <input_scan_code+0x7a>
   1158d:	3d aa 00 00 00       	cmp    $0xaa,%eax
   11592:	74 1f                	je     115b3 <input_scan_code+0x53>
   11594:	3d b6 00 00 00       	cmp    $0xb6,%eax
   11599:	74 18                	je     115b3 <input_scan_code+0x53>
   1159b:	3d 9d 00 00 00       	cmp    $0x9d,%eax
   115a0:	74 2c                	je     115ce <input_scan_code+0x6e>
   115a2:	eb 36                	jmp    115da <input_scan_code+0x7a>
	case L_SHIFT_DN:
	case R_SHIFT_DN:
		shift = 1;
   115a4:	c7 05 08 e1 01 00 01 	movl   $0x1,0x1e108
   115ab:	00 00 00 
		break;
   115ae:	e9 99 00 00 00       	jmp    1164c <input_scan_code+0xec>

	case L_SHIFT_UP:
	case R_SHIFT_UP:
		shift = 0;
   115b3:	c7 05 08 e1 01 00 00 	movl   $0x0,0x1e108
   115ba:	00 00 00 
		break;
   115bd:	e9 8a 00 00 00       	jmp    1164c <input_scan_code+0xec>

	case L_CTRL_DN:
		ctrl_mask = BMASK5;
   115c2:	c7 05 08 d1 01 00 1f 	movl   $0x1f,0x1d108
   115c9:	00 00 00 
		break;
   115cc:	eb 7e                	jmp    1164c <input_scan_code+0xec>

	case L_CTRL_UP:
		ctrl_mask = BMASK8;
   115ce:	c7 05 08 d1 01 00 ff 	movl   $0xff,0x1d108
   115d5:	00 00 00 
		break;
   115d8:	eb 72                	jmp    1164c <input_scan_code+0xec>
	default:
		/*
		** Process ordinary characters only on the press (to handle
		** autorepeat).  Ignore undefined scan codes.
		*/
		if( IS_PRESS(code) ) {
   115da:	8b 45 08             	mov    0x8(%ebp),%eax
   115dd:	25 80 00 00 00       	and    $0x80,%eax
   115e2:	85 c0                	test   %eax,%eax
   115e4:	75 66                	jne    1164c <input_scan_code+0xec>
			code = scan_code[ shift ][ (int)code ];
   115e6:	a1 08 e1 01 00       	mov    0x1e108,%eax
   115eb:	c1 e0 07             	shl    $0x7,%eax
   115ee:	89 c2                	mov    %eax,%edx
   115f0:	8b 45 08             	mov    0x8(%ebp),%eax
   115f3:	01 d0                	add    %edx,%eax
   115f5:	05 00 d0 01 00       	add    $0x1d000,%eax
   115fa:	0f b6 00             	movzbl (%eax),%eax
   115fd:	0f b6 c0             	movzbl %al,%eax
   11600:	89 45 08             	mov    %eax,0x8(%ebp)
			if( code != '\377' ) {
   11603:	83 7d 08 ff          	cmpl   $0xffffffff,0x8(%ebp)
   11607:	74 43                	je     1164c <input_scan_code+0xec>
				volatile char   *next = increment( next_space );
   11609:	a1 04 d1 01 00       	mov    0x1d104,%eax
   1160e:	50                   	push   %eax
   1160f:	e8 2f ff ff ff       	call   11543 <increment>
   11614:	83 c4 04             	add    $0x4,%esp
   11617:	89 45 f8             	mov    %eax,-0x8(%ebp)

				/*
				** Store character only if there's room
				*/
				rval = code & ctrl_mask;
   1161a:	a1 08 d1 01 00       	mov    0x1d108,%eax
   1161f:	23 45 08             	and    0x8(%ebp),%eax
   11622:	89 45 fc             	mov    %eax,-0x4(%ebp)
				if( next != next_char ) {
   11625:	a1 00 d1 01 00       	mov    0x1d100,%eax
   1162a:	39 45 f8             	cmp    %eax,-0x8(%ebp)
   1162d:	74 1d                	je     1164c <input_scan_code+0xec>
					*next_space = code & ctrl_mask;
   1162f:	8b 45 08             	mov    0x8(%ebp),%eax
   11632:	89 c1                	mov    %eax,%ecx
   11634:	a1 08 d1 01 00       	mov    0x1d108,%eax
   11639:	89 c2                	mov    %eax,%edx
   1163b:	a1 04 d1 01 00       	mov    0x1d104,%eax
   11640:	21 ca                	and    %ecx,%edx
   11642:	88 10                	mov    %dl,(%eax)
					next_space = next;
   11644:	8b 45 f8             	mov    -0x8(%ebp),%eax
   11647:	a3 04 d1 01 00       	mov    %eax,0x1d104
				}
			}
		}
	}
	return( rval );
   1164c:	8b 45 fc             	mov    -0x4(%ebp),%eax
}
   1164f:	c9                   	leave  
   11650:	c3                   	ret    

00011651 <keyboard_isr>:

static void keyboard_isr( int vector, int code ) {
   11651:	55                   	push   %ebp
   11652:	89 e5                	mov    %esp,%ebp
   11654:	83 ec 28             	sub    $0x28,%esp
   11657:	c7 45 ec 60 00 00 00 	movl   $0x60,-0x14(%ebp)
	__asm__ __volatile__( "inb %w1,%0" : "=a" (data) : "d" (port) );
   1165e:	8b 45 ec             	mov    -0x14(%ebp),%eax
   11661:	89 c2                	mov    %eax,%edx
   11663:	ec                   	in     (%dx),%al
   11664:	88 45 eb             	mov    %al,-0x15(%ebp)
	return data;
   11667:	0f b6 45 eb          	movzbl -0x15(%ebp),%eax

	int data = inb( KBD_DATA );
   1166b:	0f b6 c0             	movzbl %al,%eax
   1166e:	89 45 f4             	mov    %eax,-0xc(%ebp)
	int val  = input_scan_code( data );
   11671:	ff 75 f4             	pushl  -0xc(%ebp)
   11674:	e8 e7 fe ff ff       	call   11560 <input_scan_code>
   11679:	83 c4 04             	add    $0x4,%esp
   1167c:	89 45 f0             	mov    %eax,-0x10(%ebp)

	// if there is a notification function, call it
	if( val != -1 && notify )
   1167f:	83 7d f0 ff          	cmpl   $0xffffffff,-0x10(%ebp)
   11683:	74 19                	je     1169e <keyboard_isr+0x4d>
   11685:	a1 28 e0 01 00       	mov    0x1e028,%eax
   1168a:	85 c0                	test   %eax,%eax
   1168c:	74 10                	je     1169e <keyboard_isr+0x4d>
		notify( val );
   1168e:	a1 28 e0 01 00       	mov    0x1e028,%eax
   11693:	83 ec 0c             	sub    $0xc,%esp
   11696:	ff 75 f0             	pushl  -0x10(%ebp)
   11699:	ff d0                	call   *%eax
   1169b:	83 c4 10             	add    $0x10,%esp
   1169e:	c7 45 e4 20 00 00 00 	movl   $0x20,-0x1c(%ebp)
   116a5:	c6 45 e3 20          	movb   $0x20,-0x1d(%ebp)
	__asm__ __volatile__( "outb %0,%w1" : : "a" (data), "d" (port) );
   116a9:	0f b6 45 e3          	movzbl -0x1d(%ebp),%eax
   116ad:	8b 55 e4             	mov    -0x1c(%ebp),%edx
   116b0:	ee                   	out    %al,(%dx)

	outb( PIC1_CMD, PIC_EOI );
}
   116b1:	90                   	nop
   116b2:	c9                   	leave  
   116b3:	c3                   	ret    

000116b4 <cio_getchar>:

int cio_getchar( void ) {
   116b4:	55                   	push   %ebp
   116b5:	89 e5                	mov    %esp,%ebp
   116b7:	83 ec 28             	sub    $0x28,%esp
	__asm__ __volatile__( "pushfl; popl %0" : "=r" (val) );
   116ba:	9c                   	pushf  
   116bb:	58                   	pop    %eax
   116bc:	89 45 ec             	mov    %eax,-0x14(%ebp)
	return val;
   116bf:	8b 45 ec             	mov    -0x14(%ebp),%eax
	char    c;
	int interrupts_enabled = r_eflags() & EFL_IF;
   116c2:	25 00 02 00 00       	and    $0x200,%eax
   116c7:	89 45 f4             	mov    %eax,-0xc(%ebp)

	while( next_char == next_space ) {
   116ca:	eb 45                	jmp    11711 <cio_getchar+0x5d>
		if( !interrupts_enabled ) {
   116cc:	83 7d f4 00          	cmpl   $0x0,-0xc(%ebp)
   116d0:	75 3f                	jne    11711 <cio_getchar+0x5d>
			/*
			** Must read the next keystroke ourselves.
			*/
			while( ( inb( KBD_STATUS ) & READY ) == 0 ) {
   116d2:	90                   	nop
   116d3:	c7 45 e8 64 00 00 00 	movl   $0x64,-0x18(%ebp)
	__asm__ __volatile__( "inb %w1,%0" : "=a" (data) : "d" (port) );
   116da:	8b 45 e8             	mov    -0x18(%ebp),%eax
   116dd:	89 c2                	mov    %eax,%edx
   116df:	ec                   	in     (%dx),%al
   116e0:	88 45 e7             	mov    %al,-0x19(%ebp)
	return data;
   116e3:	0f b6 45 e7          	movzbl -0x19(%ebp),%eax
   116e7:	0f b6 c0             	movzbl %al,%eax
   116ea:	83 e0 01             	and    $0x1,%eax
   116ed:	85 c0                	test   %eax,%eax
   116ef:	74 e2                	je     116d3 <cio_getchar+0x1f>
   116f1:	c7 45 e0 60 00 00 00 	movl   $0x60,-0x20(%ebp)
	__asm__ __volatile__( "inb %w1,%0" : "=a" (data) : "d" (port) );
   116f8:	8b 45 e0             	mov    -0x20(%ebp),%eax
   116fb:	89 c2                	mov    %eax,%edx
   116fd:	ec                   	in     (%dx),%al
   116fe:	88 45 df             	mov    %al,-0x21(%ebp)
	return data;
   11701:	0f b6 45 df          	movzbl -0x21(%ebp),%eax
				;
			}
			(void) input_scan_code( inb( KBD_DATA ) );
   11705:	0f b6 c0             	movzbl %al,%eax
   11708:	50                   	push   %eax
   11709:	e8 52 fe ff ff       	call   11560 <input_scan_code>
   1170e:	83 c4 04             	add    $0x4,%esp
	while( next_char == next_space ) {
   11711:	8b 15 00 d1 01 00    	mov    0x1d100,%edx
   11717:	a1 04 d1 01 00       	mov    0x1d104,%eax
   1171c:	39 c2                	cmp    %eax,%edx
   1171e:	74 ac                	je     116cc <cio_getchar+0x18>
		}
	}

	c = *next_char & BMASK8;
   11720:	a1 00 d1 01 00       	mov    0x1d100,%eax
   11725:	0f b6 00             	movzbl (%eax),%eax
   11728:	88 45 f3             	mov    %al,-0xd(%ebp)
	next_char = increment( next_char );
   1172b:	a1 00 d1 01 00       	mov    0x1d100,%eax
   11730:	50                   	push   %eax
   11731:	e8 0d fe ff ff       	call   11543 <increment>
   11736:	83 c4 04             	add    $0x4,%esp
   11739:	a3 00 d1 01 00       	mov    %eax,0x1d100
	if( c != EOT ) {
   1173e:	80 7d f3 04          	cmpb   $0x4,-0xd(%ebp)
   11742:	74 10                	je     11754 <cio_getchar+0xa0>
		cio_putchar( c );
   11744:	0f be 45 f3          	movsbl -0xd(%ebp),%eax
   11748:	83 ec 0c             	sub    $0xc,%esp
   1174b:	50                   	push   %eax
   1174c:	e8 1c f6 ff ff       	call   10d6d <cio_putchar>
   11751:	83 c4 10             	add    $0x10,%esp
	}
	return c;
   11754:	0f be 45 f3          	movsbl -0xd(%ebp),%eax
}
   11758:	c9                   	leave  
   11759:	c3                   	ret    

0001175a <cio_gets>:

int cio_gets( char *buffer, unsigned int size ) {
   1175a:	55                   	push   %ebp
   1175b:	89 e5                	mov    %esp,%ebp
   1175d:	83 ec 18             	sub    $0x18,%esp
	char    ch;
	int count = 0;
   11760:	c7 45 f4 00 00 00 00 	movl   $0x0,-0xc(%ebp)

	while( size > 1 ) {
   11767:	eb 2b                	jmp    11794 <cio_gets+0x3a>
		ch = cio_getchar();
   11769:	e8 46 ff ff ff       	call   116b4 <cio_getchar>
   1176e:	88 45 f3             	mov    %al,-0xd(%ebp)
		if( ch == EOT ) {
   11771:	80 7d f3 04          	cmpb   $0x4,-0xd(%ebp)
   11775:	74 25                	je     1179c <cio_gets+0x42>
			break;
		}
		*buffer++ = ch;
   11777:	8b 45 08             	mov    0x8(%ebp),%eax
   1177a:	8d 50 01             	lea    0x1(%eax),%edx
   1177d:	89 55 08             	mov    %edx,0x8(%ebp)
   11780:	0f b6 55 f3          	movzbl -0xd(%ebp),%edx
   11784:	88 10                	mov    %dl,(%eax)
		count += 1;
   11786:	83 45 f4 01          	addl   $0x1,-0xc(%ebp)
		size -= 1;
   1178a:	83 6d 0c 01          	subl   $0x1,0xc(%ebp)
		if( ch == '\n' ) {
   1178e:	80 7d f3 0a          	cmpb   $0xa,-0xd(%ebp)
   11792:	74 0b                	je     1179f <cio_gets+0x45>
	while( size > 1 ) {
   11794:	83 7d 0c 01          	cmpl   $0x1,0xc(%ebp)
   11798:	77 cf                	ja     11769 <cio_gets+0xf>
   1179a:	eb 04                	jmp    117a0 <cio_gets+0x46>
			break;
   1179c:	90                   	nop
   1179d:	eb 01                	jmp    117a0 <cio_gets+0x46>
			break;
   1179f:	90                   	nop
		}
	}
	*buffer = '\0';
   117a0:	8b 45 08             	mov    0x8(%ebp),%eax
   117a3:	c6 00 00             	movb   $0x0,(%eax)
	return count;
   117a6:	8b 45 f4             	mov    -0xc(%ebp),%eax
}
   117a9:	c9                   	leave  
   117aa:	c3                   	ret    

000117ab <cio_input_queue>:

int cio_input_queue( void ) {
   117ab:	55                   	push   %ebp
   117ac:	89 e5                	mov    %esp,%ebp
   117ae:	83 ec 10             	sub    $0x10,%esp
	int n_chars = next_space - next_char;
   117b1:	a1 04 d1 01 00       	mov    0x1d104,%eax
   117b6:	89 c2                	mov    %eax,%edx
   117b8:	a1 00 d1 01 00       	mov    0x1d100,%eax
   117bd:	29 c2                	sub    %eax,%edx
   117bf:	89 d0                	mov    %edx,%eax
   117c1:	89 45 fc             	mov    %eax,-0x4(%ebp)

	if( n_chars < 0 ) {
   117c4:	83 7d fc 00          	cmpl   $0x0,-0x4(%ebp)
   117c8:	79 07                	jns    117d1 <cio_input_queue+0x26>
		n_chars += C_BUFSIZE;
   117ca:	81 45 fc c8 00 00 00 	addl   $0xc8,-0x4(%ebp)
	}
	return n_chars;
   117d1:	8b 45 fc             	mov    -0x4(%ebp),%eax
}
   117d4:	c9                   	leave  
   117d5:	c3                   	ret    

000117d6 <cio_init>:

/*
** Initialization routines
*/
void cio_init( void (*fcn)(int) ) {
   117d6:	55                   	push   %ebp
   117d7:	89 e5                	mov    %esp,%ebp
   117d9:	83 ec 08             	sub    $0x8,%esp
	/*
	** Screen dimensions
	*/
	min_x  = SCREEN_MIN_X;  
   117dc:	c7 05 18 e0 01 00 00 	movl   $0x0,0x1e018
   117e3:	00 00 00 
	min_y  = SCREEN_MIN_Y;
   117e6:	c7 05 1c e0 01 00 00 	movl   $0x0,0x1e01c
   117ed:	00 00 00 
	max_x  = SCREEN_MAX_X;
   117f0:	c7 05 20 e0 01 00 4f 	movl   $0x4f,0x1e020
   117f7:	00 00 00 
	max_y  = SCREEN_MAX_Y;
   117fa:	c7 05 24 e0 01 00 18 	movl   $0x18,0x1e024
   11801:	00 00 00 

	/*
	** Scrolling region
	*/
	scroll_min_x = SCREEN_MIN_X;
   11804:	c7 05 00 e0 01 00 00 	movl   $0x0,0x1e000
   1180b:	00 00 00 
	scroll_min_y = SCREEN_MIN_Y;
   1180e:	c7 05 04 e0 01 00 00 	movl   $0x0,0x1e004
   11815:	00 00 00 
	scroll_max_x = SCREEN_MAX_X;
   11818:	c7 05 08 e0 01 00 4f 	movl   $0x4f,0x1e008
   1181f:	00 00 00 
	scroll_max_y = SCREEN_MAX_Y;
   11822:	c7 05 0c e0 01 00 18 	movl   $0x18,0x1e00c
   11829:	00 00 00 

	/*
	** Initial cursor location
	*/
	curr_y = min_y;
   1182c:	a1 1c e0 01 00       	mov    0x1e01c,%eax
   11831:	a3 14 e0 01 00       	mov    %eax,0x1e014
	curr_x = min_x;
   11836:	a1 18 e0 01 00       	mov    0x1e018,%eax
   1183b:	a3 10 e0 01 00       	mov    %eax,0x1e010
	setcursor();
   11840:	e8 b3 f2 ff ff       	call   10af8 <setcursor>

	/*
	** Notification function (or NULL)
	*/
	notify = fcn;
   11845:	8b 45 08             	mov    0x8(%ebp),%eax
   11848:	a3 28 e0 01 00       	mov    %eax,0x1e028

	/*
	** Set up the interrupt handler for the keyboard
	*/
	install_isr( VEC_KBD, keyboard_isr );
   1184d:	83 ec 08             	sub    $0x8,%esp
   11850:	68 51 16 01 00       	push   $0x11651
   11855:	6a 21                	push   $0x21
   11857:	e8 1a 3f 00 00       	call   15776 <install_isr>
   1185c:	83 c4 10             	add    $0x10,%esp
}
   1185f:	90                   	nop
   11860:	c9                   	leave  
   11861:	c3                   	ret    

00011862 <clk_isr>:
** The ISR for the clock
**
** @param vector    Vector number for the clock interrupt
** @param code      Error code (0 for this interrupt)
*/
static void clk_isr( int vector, int code ) {
   11862:	55                   	push   %ebp
   11863:	89 e5                	mov    %esp,%ebp
   11865:	57                   	push   %edi
   11866:	56                   	push   %esi
   11867:	53                   	push   %ebx
   11868:	83 ec 2c             	sub    $0x2c,%esp

	// spin the pinwheel

	++pinwheel;
   1186b:	a1 0c e1 01 00       	mov    0x1e10c,%eax
   11870:	83 c0 01             	add    $0x1,%eax
   11873:	a3 0c e1 01 00       	mov    %eax,0x1e10c
	if( pinwheel == (CLOCK_FREQ / 10) ) {
   11878:	a1 0c e1 01 00       	mov    0x1e10c,%eax
   1187d:	83 f8 64             	cmp    $0x64,%eax
   11880:	75 39                	jne    118bb <clk_isr+0x59>
		pinwheel = 0;
   11882:	c7 05 0c e1 01 00 00 	movl   $0x0,0x1e10c
   11889:	00 00 00 
		++pindex;
   1188c:	a1 10 e1 01 00       	mov    0x1e110,%eax
   11891:	83 c0 01             	add    $0x1,%eax
   11894:	a3 10 e1 01 00       	mov    %eax,0x1e110
		cio_putchar_at( 0, 0, "|/-\\"[ pindex & 3 ] );
   11899:	a1 10 e1 01 00       	mov    0x1e110,%eax
   1189e:	83 e0 03             	and    $0x3,%eax
   118a1:	0f b6 80 eb a9 01 00 	movzbl 0x1a9eb(%eax),%eax
   118a8:	0f be c0             	movsbl %al,%eax
   118ab:	83 ec 04             	sub    $0x4,%esp
   118ae:	50                   	push   %eax
   118af:	6a 00                	push   $0x0
   118b1:	6a 00                	push   $0x0
   118b3:	e8 3d f4 ff ff       	call   10cf5 <cio_putchar_at>
   118b8:	83 c4 10             	add    $0x10,%esp
	// with the SIO buffers, if non-empty).
	//
	// Define the symbol SYSTEM_STATUS with a value equal to the desired
	// reporting frequency, in seconds.

	if( (system_time % SEC_TO_TICKS(SYSTEM_STATUS)) == 0 ) {
   118bb:	8b 0d bc f1 01 00    	mov    0x1f1bc,%ecx
   118c1:	ba 59 17 b7 d1       	mov    $0xd1b71759,%edx
   118c6:	89 c8                	mov    %ecx,%eax
   118c8:	f7 e2                	mul    %edx
   118ca:	89 d0                	mov    %edx,%eax
   118cc:	c1 e8 0d             	shr    $0xd,%eax
   118cf:	69 c0 10 27 00 00    	imul   $0x2710,%eax,%eax
   118d5:	29 c1                	sub    %eax,%ecx
   118d7:	89 c8                	mov    %ecx,%eax
   118d9:	85 c0                	test   %eax,%eax
   118db:	75 76                	jne    11953 <clk_isr+0xf1>
		cio_printf_at( 1, 0, " queues: R[%u] W[%u] S[%u] Z[%u] I[%u]   ",
   118dd:	a1 04 20 02 00       	mov    0x22004,%eax
   118e2:	83 ec 0c             	sub    $0xc,%esp
   118e5:	50                   	push   %eax
   118e6:	e8 96 25 00 00       	call   13e81 <pcb_queue_length>
   118eb:	83 c4 10             	add    $0x10,%esp
   118ee:	89 45 d4             	mov    %eax,-0x2c(%ebp)
   118f1:	a1 18 20 02 00       	mov    0x22018,%eax
   118f6:	83 ec 0c             	sub    $0xc,%esp
   118f9:	50                   	push   %eax
   118fa:	e8 82 25 00 00       	call   13e81 <pcb_queue_length>
   118ff:	83 c4 10             	add    $0x10,%esp
   11902:	89 c7                	mov    %eax,%edi
   11904:	a1 08 20 02 00       	mov    0x22008,%eax
   11909:	83 ec 0c             	sub    $0xc,%esp
   1190c:	50                   	push   %eax
   1190d:	e8 6f 25 00 00       	call   13e81 <pcb_queue_length>
   11912:	83 c4 10             	add    $0x10,%esp
   11915:	89 c6                	mov    %eax,%esi
   11917:	a1 10 20 02 00       	mov    0x22010,%eax
   1191c:	83 ec 0c             	sub    $0xc,%esp
   1191f:	50                   	push   %eax
   11920:	e8 5c 25 00 00       	call   13e81 <pcb_queue_length>
   11925:	83 c4 10             	add    $0x10,%esp
   11928:	89 c3                	mov    %eax,%ebx
   1192a:	a1 d0 24 02 00       	mov    0x224d0,%eax
   1192f:	83 ec 0c             	sub    $0xc,%esp
   11932:	50                   	push   %eax
   11933:	e8 49 25 00 00       	call   13e81 <pcb_queue_length>
   11938:	83 c4 10             	add    $0x10,%esp
   1193b:	ff 75 d4             	pushl  -0x2c(%ebp)
   1193e:	57                   	push   %edi
   1193f:	56                   	push   %esi
   11940:	53                   	push   %ebx
   11941:	50                   	push   %eax
   11942:	68 70 a9 01 00       	push   $0x1a970
   11947:	6a 00                	push   $0x0
   11949:	6a 01                	push   $0x1
   1194b:	e8 b7 fb ff ff       	call   11507 <cio_printf_at>
   11950:	83 c4 20             	add    $0x20,%esp
		);
	}
#endif

	// time marches on!
	++system_time;
   11953:	a1 bc f1 01 00       	mov    0x1f1bc,%eax
   11958:	83 c0 01             	add    $0x1,%eax
   1195b:	a3 bc f1 01 00       	mov    %eax,0x1f1bc
	// we give them preference over the current process when
	// it is scheduled again

	do {
		// if there isn't anyone in the sleep queue, we're done
		if( pcb_queue_empty(sleeping) ) {
   11960:	a1 08 20 02 00       	mov    0x22008,%eax
   11965:	83 ec 0c             	sub    $0xc,%esp
   11968:	50                   	push   %eax
   11969:	e8 c0 24 00 00       	call   13e2e <pcb_queue_empty>
   1196e:	83 c4 10             	add    $0x10,%esp
   11971:	84 c0                	test   %al,%al
   11973:	0f 85 c7 00 00 00    	jne    11a40 <clk_isr+0x1de>
			break;
		}

		// peek at the first member of the queue
		pcb_t *tmp = pcb_queue_peek( sleeping );
   11979:	a1 08 20 02 00       	mov    0x22008,%eax
   1197e:	83 ec 0c             	sub    $0xc,%esp
   11981:	50                   	push   %eax
   11982:	e8 da 29 00 00       	call   14361 <pcb_queue_peek>
   11987:	83 c4 10             	add    $0x10,%esp
   1198a:	89 45 dc             	mov    %eax,-0x24(%ebp)
		assert( tmp != NULL );
   1198d:	8b 45 dc             	mov    -0x24(%ebp),%eax
   11990:	85 c0                	test   %eax,%eax
   11992:	75 38                	jne    119cc <clk_isr+0x16a>
   11994:	83 ec 04             	sub    $0x4,%esp
   11997:	68 9a a9 01 00       	push   $0x1a99a
   1199c:	6a 00                	push   $0x0
   1199e:	6a 64                	push   $0x64
   119a0:	68 a3 a9 01 00       	push   $0x1a9a3
   119a5:	68 f8 a9 01 00       	push   $0x1a9f8
   119aa:	68 ab a9 01 00       	push   $0x1a9ab
   119af:	68 00 00 02 00       	push   $0x20000
   119b4:	e8 3e 0d 00 00       	call   126f7 <sprint>
   119b9:	83 c4 20             	add    $0x20,%esp
   119bc:	83 ec 0c             	sub    $0xc,%esp
   119bf:	68 00 00 02 00       	push   $0x20000
   119c4:	e8 ae 0a 00 00       	call   12477 <kpanic>
   119c9:	83 c4 10             	add    $0x10,%esp
		// the sleep queue is sorted in ascending order by wakeup
		// time, so we know that the retrieved PCB's wakeup time is
		// the earliest of any process on the sleep queue; if that
		// time hasn't arrived yet, there's nobody left to awaken

		if( tmp->wakeup > system_time ) {
   119cc:	8b 45 dc             	mov    -0x24(%ebp),%eax
   119cf:	8b 50 10             	mov    0x10(%eax),%edx
   119d2:	a1 bc f1 01 00       	mov    0x1f1bc,%eax
   119d7:	39 c2                	cmp    %eax,%edx
   119d9:	77 68                	ja     11a43 <clk_isr+0x1e1>
			break;
		}

		// OK, we need to wake this process up
		assert( pcb_queue_remove(sleeping,&tmp) == SUCCESS );
   119db:	a1 08 20 02 00       	mov    0x22008,%eax
   119e0:	83 ec 08             	sub    $0x8,%esp
   119e3:	8d 55 dc             	lea    -0x24(%ebp),%edx
   119e6:	52                   	push   %edx
   119e7:	50                   	push   %eax
   119e8:	e8 df 26 00 00       	call   140cc <pcb_queue_remove>
   119ed:	83 c4 10             	add    $0x10,%esp
   119f0:	85 c0                	test   %eax,%eax
   119f2:	74 38                	je     11a2c <clk_isr+0x1ca>
   119f4:	83 ec 04             	sub    $0x4,%esp
   119f7:	68 c4 a9 01 00       	push   $0x1a9c4
   119fc:	6a 00                	push   $0x0
   119fe:	6a 70                	push   $0x70
   11a00:	68 a3 a9 01 00       	push   $0x1a9a3
   11a05:	68 f8 a9 01 00       	push   $0x1a9f8
   11a0a:	68 ab a9 01 00       	push   $0x1a9ab
   11a0f:	68 00 00 02 00       	push   $0x20000
   11a14:	e8 de 0c 00 00       	call   126f7 <sprint>
   11a19:	83 c4 20             	add    $0x20,%esp
   11a1c:	83 ec 0c             	sub    $0xc,%esp
   11a1f:	68 00 00 02 00       	push   $0x20000
   11a24:	e8 4e 0a 00 00       	call   12477 <kpanic>
   11a29:	83 c4 10             	add    $0x10,%esp
		schedule( tmp );
   11a2c:	8b 45 dc             	mov    -0x24(%ebp),%eax
   11a2f:	83 ec 0c             	sub    $0xc,%esp
   11a32:	50                   	push   %eax
   11a33:	e8 87 29 00 00       	call   143bf <schedule>
   11a38:	83 c4 10             	add    $0x10,%esp
	do {
   11a3b:	e9 20 ff ff ff       	jmp    11960 <clk_isr+0xfe>
			break;
   11a40:	90                   	nop
   11a41:	eb 01                	jmp    11a44 <clk_isr+0x1e2>
			break;
   11a43:	90                   	nop
	} while( 1 );

	// next, we decrement the current process' remaining time
	current->ticks -= 1;
   11a44:	a1 14 20 02 00       	mov    0x22014,%eax
   11a49:	8b 50 24             	mov    0x24(%eax),%edx
   11a4c:	a1 14 20 02 00       	mov    0x22014,%eax
   11a51:	83 ea 01             	sub    $0x1,%edx
   11a54:	89 50 24             	mov    %edx,0x24(%eax)

	// has it expired?
	if( current->ticks < 1 ) {
   11a57:	a1 14 20 02 00       	mov    0x22014,%eax
   11a5c:	8b 40 24             	mov    0x24(%eax),%eax
   11a5f:	85 c0                	test   %eax,%eax
   11a61:	75 20                	jne    11a83 <clk_isr+0x221>
		// yes! reschedule it
		schedule( current );
   11a63:	a1 14 20 02 00       	mov    0x22014,%eax
   11a68:	83 ec 0c             	sub    $0xc,%esp
   11a6b:	50                   	push   %eax
   11a6c:	e8 4e 29 00 00       	call   143bf <schedule>
   11a71:	83 c4 10             	add    $0x10,%esp
		current = NULL;
   11a74:	c7 05 14 20 02 00 00 	movl   $0x0,0x22014
   11a7b:	00 00 00 
		// and pick a new process
		dispatch();
   11a7e:	e8 fd 29 00 00       	call   14480 <dispatch>
   11a83:	c7 45 e4 20 00 00 00 	movl   $0x20,-0x1c(%ebp)
   11a8a:	c6 45 e3 20          	movb   $0x20,-0x1d(%ebp)
	__asm__ __volatile__( "outb %0,%w1" : : "a" (data), "d" (port) );
   11a8e:	0f b6 45 e3          	movzbl -0x1d(%ebp),%eax
   11a92:	8b 55 e4             	mov    -0x1c(%ebp),%edx
   11a95:	ee                   	out    %al,(%dx)
	}

	// tell the PIC we're done
	outb( PIC1_CMD, PIC_EOI );
}
   11a96:	90                   	nop
   11a97:	8d 65 f4             	lea    -0xc(%ebp),%esp
   11a9a:	5b                   	pop    %ebx
   11a9b:	5e                   	pop    %esi
   11a9c:	5f                   	pop    %edi
   11a9d:	5d                   	pop    %ebp
   11a9e:	c3                   	ret    

00011a9f <clk_init>:
** Name:  clk_init
**
** Initializes the clock module
**
*/
void clk_init( void ) {
   11a9f:	55                   	push   %ebp
   11aa0:	89 e5                	mov    %esp,%ebp
   11aa2:	83 ec 28             	sub    $0x28,%esp

#if TRACING_INIT
	cio_puts( " Clock" );
   11aa5:	83 ec 0c             	sub    $0xc,%esp
   11aa8:	68 f0 a9 01 00       	push   $0x1a9f0
   11aad:	e8 fb f3 ff ff       	call   10ead <cio_puts>
   11ab2:	83 c4 10             	add    $0x10,%esp
#endif

	// start the pinwheel
	pinwheel = (CLOCK_FREQ / 10) - 1;
   11ab5:	c7 05 0c e1 01 00 63 	movl   $0x63,0x1e10c
   11abc:	00 00 00 
	pindex = 0;
   11abf:	c7 05 10 e1 01 00 00 	movl   $0x0,0x1e110
   11ac6:	00 00 00 

	// return to the dawn of time
	system_time = 0;
   11ac9:	c7 05 bc f1 01 00 00 	movl   $0x0,0x1f1bc
   11ad0:	00 00 00 

	// configure the clock
	uint32_t divisor = PIT_FREQ / CLOCK_FREQ;
   11ad3:	c7 45 f4 a9 04 00 00 	movl   $0x4a9,-0xc(%ebp)
   11ada:	c7 45 e0 43 00 00 00 	movl   $0x43,-0x20(%ebp)
   11ae1:	c6 45 df 36          	movb   $0x36,-0x21(%ebp)
   11ae5:	0f b6 45 df          	movzbl -0x21(%ebp),%eax
   11ae9:	8b 55 e0             	mov    -0x20(%ebp),%edx
   11aec:	ee                   	out    %al,(%dx)
	outb( PIT_CONTROL_PORT, PIT_0_LOAD | PIT_0_SQUARE );
	outb( PIT_0_PORT, divisor & 0xff );        // LSB of divisor
   11aed:	8b 45 f4             	mov    -0xc(%ebp),%eax
   11af0:	0f b6 c0             	movzbl %al,%eax
   11af3:	c7 45 e8 40 00 00 00 	movl   $0x40,-0x18(%ebp)
   11afa:	88 45 e7             	mov    %al,-0x19(%ebp)
   11afd:	0f b6 45 e7          	movzbl -0x19(%ebp),%eax
   11b01:	8b 55 e8             	mov    -0x18(%ebp),%edx
   11b04:	ee                   	out    %al,(%dx)
	outb( PIT_0_PORT, (divisor >> 8) & 0xff ); // MSB of divisor
   11b05:	8b 45 f4             	mov    -0xc(%ebp),%eax
   11b08:	c1 e8 08             	shr    $0x8,%eax
   11b0b:	0f b6 c0             	movzbl %al,%eax
   11b0e:	c7 45 f0 40 00 00 00 	movl   $0x40,-0x10(%ebp)
   11b15:	88 45 ef             	mov    %al,-0x11(%ebp)
   11b18:	0f b6 45 ef          	movzbl -0x11(%ebp),%eax
   11b1c:	8b 55 f0             	mov    -0x10(%ebp),%edx
   11b1f:	ee                   	out    %al,(%dx)

	// register the second-stage ISR
	install_isr( VEC_TIMER, clk_isr );
   11b20:	83 ec 08             	sub    $0x8,%esp
   11b23:	68 62 18 01 00       	push   $0x11862
   11b28:	6a 20                	push   $0x20
   11b2a:	e8 47 3c 00 00       	call   15776 <install_isr>
   11b2f:	83 c4 10             	add    $0x10,%esp
}
   11b32:	90                   	nop
   11b33:	c9                   	leave  
   11b34:	c3                   	ret    

00011b35 <kreport>:
**
** Prints configuration information about the OS on the console monitor.
**
** @param dtrace  Decode the TRACE options
*/
static void kreport( bool_t dtrace ) {
   11b35:	55                   	push   %ebp
   11b36:	89 e5                	mov    %esp,%ebp
   11b38:	83 ec 18             	sub    $0x18,%esp
   11b3b:	8b 45 08             	mov    0x8(%ebp),%eax
   11b3e:	88 45 f4             	mov    %al,-0xc(%ebp)

	cio_puts( "\n-------------------------------\n" );
   11b41:	83 ec 0c             	sub    $0xc,%esp
   11b44:	68 00 aa 01 00       	push   $0x1aa00
   11b49:	e8 5f f3 ff ff       	call   10ead <cio_puts>
   11b4e:	83 c4 10             	add    $0x10,%esp
	cio_printf( "Config:  N_PROCS = %d", N_PROCS );
   11b51:	83 ec 08             	sub    $0x8,%esp
   11b54:	6a 19                	push   $0x19
   11b56:	68 22 aa 01 00       	push   $0x1aa22
   11b5b:	e8 c7 f9 ff ff       	call   11527 <cio_printf>
   11b60:	83 c4 10             	add    $0x10,%esp
	cio_printf( " N_PRIOS = %d", N_PRIOS );
   11b63:	83 ec 08             	sub    $0x8,%esp
   11b66:	6a 04                	push   $0x4
   11b68:	68 38 aa 01 00       	push   $0x1aa38
   11b6d:	e8 b5 f9 ff ff       	call   11527 <cio_printf>
   11b72:	83 c4 10             	add    $0x10,%esp
	cio_printf( " N_STATES = %d", N_STATES );
   11b75:	83 ec 08             	sub    $0x8,%esp
   11b78:	6a 09                	push   $0x9
   11b7a:	68 46 aa 01 00       	push   $0x1aa46
   11b7f:	e8 a3 f9 ff ff       	call   11527 <cio_printf>
   11b84:	83 c4 10             	add    $0x10,%esp
	cio_printf( " CLOCK = %dHz\n", CLOCK_FREQ );
   11b87:	83 ec 08             	sub    $0x8,%esp
   11b8a:	68 e8 03 00 00       	push   $0x3e8
   11b8f:	68 55 aa 01 00       	push   $0x1aa55
   11b94:	e8 8e f9 ff ff       	call   11527 <cio_printf>
   11b99:	83 c4 10             	add    $0x10,%esp

	// This code is ugly, but it's the simplest way to
	// print out the values of compile-time options
	// without spending a lot of execution time at it.

	cio_puts( "Options: "
   11b9c:	83 ec 0c             	sub    $0xc,%esp
   11b9f:	68 64 aa 01 00       	push   $0x1aa64
   11ba4:	e8 04 f3 ff ff       	call   10ead <cio_puts>
   11ba9:	83 c4 10             	add    $0x10,%esp
		" Cstats"
#endif
		); // end of cio_puts() call

#ifdef SANITY
	cio_printf( " SANITY = %d", SANITY );
   11bac:	83 ec 08             	sub    $0x8,%esp
   11baf:	68 0f 27 00 00       	push   $0x270f
   11bb4:	68 7f aa 01 00       	push   $0x1aa7f
   11bb9:	e8 69 f9 ff ff       	call   11527 <cio_printf>
   11bbe:	83 c4 10             	add    $0x10,%esp
#ifdef STATUS
	cio_printf( " STATUS = %d", STATUS );
#endif

#if TRACE > 0
	cio_printf( " TRACE = 0x%04x\n", TRACE );
   11bc1:	83 ec 08             	sub    $0x8,%esp
   11bc4:	68 00 01 00 00       	push   $0x100
   11bc9:	68 8c aa 01 00       	push   $0x1aa8c
   11bce:	e8 54 f9 ff ff       	call   11527 <cio_printf>
   11bd3:	83 c4 10             	add    $0x10,%esp

	// decode the trace settings if that was requested
	if( TRACING_SOMETHING && dtrace ) {
   11bd6:	80 7d f4 00          	cmpb   $0x0,-0xc(%ebp)
   11bda:	74 10                	je     11bec <kreport+0xb7>

		// this one is simpler - we rely on string literal
		// concatenation in the C compiler to create one
		// long string to print out

		cio_puts( "Tracing:"
   11bdc:	83 ec 0c             	sub    $0xc,%esp
   11bdf:	68 9d aa 01 00       	push   $0x1aa9d
   11be4:	e8 c4 f2 ff ff       	call   10ead <cio_puts>
   11be9:	83 c4 10             	add    $0x10,%esp
#endif
			 ); // end of cio_puts() call
	}
#endif  /* TRACE > 0 */

	cio_putchar( '\n' );
   11bec:	83 ec 0c             	sub    $0xc,%esp
   11bef:	6a 0a                	push   $0xa
   11bf1:	e8 77 f1 ff ff       	call   10d6d <cio_putchar>
   11bf6:	83 c4 10             	add    $0x10,%esp
}
   11bf9:	90                   	nop
   11bfa:	c9                   	leave  
   11bfb:	c3                   	ret    

00011bfc <stats>:
** statistics on the console display, or will cause the
** user shell process to be dispatched.
**
** This code runs as part of the CIO ISR.
*/
static void stats( int code ) {
   11bfc:	55                   	push   %ebp
   11bfd:	89 e5                	mov    %esp,%ebp
   11bff:	83 ec 08             	sub    $0x8,%esp

	switch( code ) {
   11c02:	8b 45 08             	mov    0x8(%ebp),%eax
   11c05:	83 f8 63             	cmp    $0x63,%eax
   11c08:	74 63                	je     11c6d <stats+0x71>
   11c0a:	83 f8 63             	cmp    $0x63,%eax
   11c0d:	7f 1c                	jg     11c2b <stats+0x2f>
   11c0f:	83 f8 0d             	cmp    $0xd,%eax
   11c12:	0f 84 2f 01 00 00    	je     11d47 <stats+0x14b>
   11c18:	83 f8 61             	cmp    $0x61,%eax
   11c1b:	74 39                	je     11c56 <stats+0x5a>
   11c1d:	83 f8 0a             	cmp    $0xa,%eax
   11c20:	0f 84 21 01 00 00    	je     11d47 <stats+0x14b>
   11c26:	e9 f7 00 00 00       	jmp    11d22 <stats+0x126>
   11c2b:	83 f8 70             	cmp    $0x70,%eax
   11c2e:	74 52                	je     11c82 <stats+0x86>
   11c30:	83 f8 70             	cmp    $0x70,%eax
   11c33:	7f 0e                	jg     11c43 <stats+0x47>
   11c35:	83 f8 68             	cmp    $0x68,%eax
   11c38:	0f 84 f7 00 00 00    	je     11d35 <stats+0x139>
   11c3e:	e9 df 00 00 00       	jmp    11d22 <stats+0x126>
   11c43:	83 f8 71             	cmp    $0x71,%eax
   11c46:	74 51                	je     11c99 <stats+0x9d>
   11c48:	83 f8 72             	cmp    $0x72,%eax
   11c4b:	0f 84 c2 00 00 00    	je     11d13 <stats+0x117>
   11c51:	e9 cc 00 00 00       	jmp    11d22 <stats+0x126>

	case 'a':  // dump the active table
		ptable_dump( "\nActive processes", false );
   11c56:	83 ec 08             	sub    $0x8,%esp
   11c59:	6a 00                	push   $0x0
   11c5b:	68 ab aa 01 00       	push   $0x1aaab
   11c60:	e8 ab 2c 00 00       	call   14910 <ptable_dump>
   11c65:	83 c4 10             	add    $0x10,%esp
		break;
   11c68:	e9 db 00 00 00       	jmp    11d48 <stats+0x14c>

	case 'c':  // dump context info for all active PCBs
		ctx_dump_all( "\nContext dump" );
   11c6d:	83 ec 0c             	sub    $0xc,%esp
   11c70:	68 bd aa 01 00       	push   $0x1aabd
   11c75:	e8 cf 29 00 00       	call   14649 <ctx_dump_all>
   11c7a:	83 c4 10             	add    $0x10,%esp
		break;
   11c7d:	e9 c6 00 00 00       	jmp    11d48 <stats+0x14c>

	case 'p':  // dump the active table and all PCBs
		ptable_dump( "\nActive processes", true );
   11c82:	83 ec 08             	sub    $0x8,%esp
   11c85:	6a 01                	push   $0x1
   11c87:	68 ab aa 01 00       	push   $0x1aaab
   11c8c:	e8 7f 2c 00 00       	call   14910 <ptable_dump>
   11c91:	83 c4 10             	add    $0x10,%esp
		break;
   11c94:	e9 af 00 00 00       	jmp    11d48 <stats+0x14c>

	case 'q':  // dump the queues
		// code to dump out any/all queues
		pcb_queue_dump( "R", ready, true );
   11c99:	a1 d0 24 02 00       	mov    0x224d0,%eax
   11c9e:	83 ec 04             	sub    $0x4,%esp
   11ca1:	6a 01                	push   $0x1
   11ca3:	50                   	push   %eax
   11ca4:	68 cb aa 01 00       	push   $0x1aacb
   11ca9:	e8 4f 2b 00 00       	call   147fd <pcb_queue_dump>
   11cae:	83 c4 10             	add    $0x10,%esp
		pcb_queue_dump( "W", waiting, true );
   11cb1:	a1 10 20 02 00       	mov    0x22010,%eax
   11cb6:	83 ec 04             	sub    $0x4,%esp
   11cb9:	6a 01                	push   $0x1
   11cbb:	50                   	push   %eax
   11cbc:	68 cd aa 01 00       	push   $0x1aacd
   11cc1:	e8 37 2b 00 00       	call   147fd <pcb_queue_dump>
   11cc6:	83 c4 10             	add    $0x10,%esp
		pcb_queue_dump( "S", sleeping, true );
   11cc9:	a1 08 20 02 00       	mov    0x22008,%eax
   11cce:	83 ec 04             	sub    $0x4,%esp
   11cd1:	6a 01                	push   $0x1
   11cd3:	50                   	push   %eax
   11cd4:	68 cf aa 01 00       	push   $0x1aacf
   11cd9:	e8 1f 2b 00 00       	call   147fd <pcb_queue_dump>
   11cde:	83 c4 10             	add    $0x10,%esp
		pcb_queue_dump( "Z", zombie, true );
   11ce1:	a1 18 20 02 00       	mov    0x22018,%eax
   11ce6:	83 ec 04             	sub    $0x4,%esp
   11ce9:	6a 01                	push   $0x1
   11ceb:	50                   	push   %eax
   11cec:	68 d1 aa 01 00       	push   $0x1aad1
   11cf1:	e8 07 2b 00 00       	call   147fd <pcb_queue_dump>
   11cf6:	83 c4 10             	add    $0x10,%esp
		pcb_queue_dump( "I", sioread, true );
   11cf9:	a1 04 20 02 00       	mov    0x22004,%eax
   11cfe:	83 ec 04             	sub    $0x4,%esp
   11d01:	6a 01                	push   $0x1
   11d03:	50                   	push   %eax
   11d04:	68 d3 aa 01 00       	push   $0x1aad3
   11d09:	e8 ef 2a 00 00       	call   147fd <pcb_queue_dump>
   11d0e:	83 c4 10             	add    $0x10,%esp
		break;
   11d11:	eb 35                	jmp    11d48 <stats+0x14c>

	case 'r':  // print system configuration information
		kreport( true );
   11d13:	83 ec 0c             	sub    $0xc,%esp
   11d16:	6a 01                	push   $0x1
   11d18:	e8 18 fe ff ff       	call   11b35 <kreport>
   11d1d:	83 c4 10             	add    $0x10,%esp
		break;
   11d20:	eb 26                	jmp    11d48 <stats+0x14c>
	case '\r': // FALL THROUGH
	case '\n':
		break;
 
	default:
		cio_printf( "console: unknown request '0x%02x'\n", code );
   11d22:	83 ec 08             	sub    $0x8,%esp
   11d25:	ff 75 08             	pushl  0x8(%ebp)
   11d28:	68 d8 aa 01 00       	push   $0x1aad8
   11d2d:	e8 f5 f7 ff ff       	call   11527 <cio_printf>
   11d32:	83 c4 10             	add    $0x10,%esp
		// FALL THROUGH

	case 'h':  // help message
		cio_puts( "\nCommands:\n"
   11d35:	83 ec 0c             	sub    $0xc,%esp
   11d38:	68 fc aa 01 00       	push   $0x1aafc
   11d3d:	e8 6b f1 ff ff       	call   10ead <cio_puts>
   11d42:	83 c4 10             	add    $0x10,%esp
			"  h -- this message\n"
			"  p -- dump the active table and all PCBs\n"
			"  q -- dump the queues\n"
			"  r -- print system configuration\n"
		);
		break;
   11d45:	eb 01                	jmp    11d48 <stats+0x14c>
		break;
   11d47:	90                   	nop
	}
}
   11d48:	90                   	nop
   11d49:	c9                   	leave  
   11d4a:	c3                   	ret    

00011d4b <main>:
** Called by the startup code immediately before returning into the
** first user process.
**
** Making this type 'int' keeps the compiler happy.
*/
int main( void ) {
   11d4b:	8d 4c 24 04          	lea    0x4(%esp),%ecx
   11d4f:	83 e4 f0             	and    $0xfffffff0,%esp
   11d52:	ff 71 fc             	pushl  -0x4(%ecx)
   11d55:	55                   	push   %ebp
   11d56:	89 e5                	mov    %esp,%ebp
   11d58:	53                   	push   %ebx
   11d59:	51                   	push   %ecx
   11d5a:	83 ec 10             	sub    $0x10,%esp
	** BOILERPLATE CODE - taken from basic framework
	**
	** Initialize interrupt stuff.
	*/

	init_interrupts();  // IDT and PIC initialization
   11d5d:	e8 01 3a 00 00       	call   15763 <init_interrupts>
	** initialize it before we initialize the kernel memory
	** and queue modules.
	*/

#if defined(CONSOLE_STATS) 
	cio_init( stats );
   11d62:	83 ec 0c             	sub    $0xc,%esp
   11d65:	68 fc 1b 01 00       	push   $0x11bfc
   11d6a:	e8 67 fa ff ff       	call   117d6 <cio_init>
   11d6f:	83 c4 10             	add    $0x10,%esp
#else
	cio_init( NULL );	// no console callback routine
#endif

	cio_clearscreen();  // wipe out whatever is there
   11d72:	e8 18 f2 ff ff       	call   10f8f <cio_clearscreen>
	**
	** Other modules (clock, SIO, syscall, etc.) are expected to
	** install their own ISRs in their initialization routines.
	*/

	cio_puts( "System initialization starting.\n" );
   11d77:	83 ec 0c             	sub    $0xc,%esp
   11d7a:	68 c8 ab 01 00       	push   $0x1abc8
   11d7f:	e8 29 f1 ff ff       	call   10ead <cio_puts>
   11d84:	83 c4 10             	add    $0x10,%esp
	cio_puts( "-------------------------------\n" );
   11d87:	83 ec 0c             	sub    $0xc,%esp
   11d8a:	68 ec ab 01 00       	push   $0x1abec
   11d8f:	e8 19 f1 ff ff       	call   10ead <cio_puts>
   11d94:	83 c4 10             	add    $0x10,%esp

#if TRACING_INIT
	cio_puts( "Modules:" );
   11d97:	83 ec 0c             	sub    $0xc,%esp
   11d9a:	68 0d ac 01 00       	push   $0x1ac0d
   11d9f:	e8 09 f1 ff ff       	call   10ead <cio_puts>
   11da4:	83 c4 10             	add    $0x10,%esp
#endif

	// call the module initialization functions, being
	// careful to follow any module precedence requirements

	km_init();		// MUST BE FIRST
   11da7:	e8 f4 0d 00 00       	call   12ba0 <km_init>

	// other module initialization calls here
	clk_init();     // clock
   11dac:	e8 ee fc ff ff       	call   11a9f <clk_init>
	pcb_init();     // process (PCBs, queues, scheduler)
   11db1:	e8 1f 18 00 00       	call   135d5 <pcb_init>
	sio_init();     // serial i/o
   11db6:	e8 2e 30 00 00       	call   14de9 <sio_init>
	sys_init();     // system call
   11dbb:	e8 af 4c 00 00       	call   16a6f <sys_init>
	user_init();    // user code handling
   11dc0:	e8 8c 4f 00 00       	call   16d51 <user_init>

	cio_puts( "\nModule initialization complete.\n" );
   11dc5:	83 ec 0c             	sub    $0xc,%esp
   11dc8:	68 18 ac 01 00       	push   $0x1ac18
   11dcd:	e8 db f0 ff ff       	call   10ead <cio_puts>
   11dd2:	83 c4 10             	add    $0x10,%esp

#if TRACING_INIT
	// report our configuration options
	kreport( true );
   11dd5:	83 ec 0c             	sub    $0xc,%esp
   11dd8:	6a 01                	push   $0x1
   11dda:	e8 56 fd ff ff       	call   11b35 <kreport>
   11ddf:	83 c4 10             	add    $0x10,%esp
#endif
	cio_puts( "-------------------------------\n" );
   11de2:	83 ec 0c             	sub    $0xc,%esp
   11de5:	68 ec ab 01 00       	push   $0x1abec
   11dea:	e8 be f0 ff ff       	call   10ead <cio_puts>
   11def:	83 c4 10             	add    $0x10,%esp
	**
	**	Enabling any I/O devices (e.g., SIO xmit/rcv)
	*/


  intel_8255x_init();
   11df2:	e8 14 51 00 00       	call   16f0b <intel_8255x_init>
  delay(DELAY_5_SEC);
   11df7:	83 ec 0c             	sub    $0xc,%esp
   11dfa:	68 c8 00 00 00       	push   $0xc8
   11dff:	e8 97 39 00 00       	call   1579b <delay>
   11e04:	83 c4 10             	add    $0x10,%esp
	** This code is largely stolen from the fork() and exec()
	** implementations in syscalls.c; if those change, this must
	** also change.
	*/

	cio_puts( "Creating initial user process..." );
   11e07:	83 ec 0c             	sub    $0xc,%esp
   11e0a:	68 3c ac 01 00       	push   $0x1ac3c
   11e0f:	e8 99 f0 ff ff       	call   10ead <cio_puts>
   11e14:	83 c4 10             	add    $0x10,%esp

	// if we can't get a PCB, there's no use continuing!
	assert( pcb_alloc(&init_pcb) == SUCCESS );
   11e17:	83 ec 0c             	sub    $0xc,%esp
   11e1a:	68 0c 20 02 00       	push   $0x2200c
   11e1f:	e8 32 1a 00 00       	call   13856 <pcb_alloc>
   11e24:	83 c4 10             	add    $0x10,%esp
   11e27:	85 c0                	test   %eax,%eax
   11e29:	74 3b                	je     11e66 <main+0x11b>
   11e2b:	83 ec 04             	sub    $0x4,%esp
   11e2e:	68 5d ac 01 00       	push   $0x1ac5d
   11e33:	6a 00                	push   $0x0
   11e35:	68 56 01 00 00       	push   $0x156
   11e3a:	68 79 ac 01 00       	push   $0x1ac79
   11e3f:	68 a0 ad 01 00       	push   $0x1ada0
   11e44:	68 82 ac 01 00       	push   $0x1ac82
   11e49:	68 00 00 02 00       	push   $0x20000
   11e4e:	e8 a4 08 00 00       	call   126f7 <sprint>
   11e53:	83 c4 20             	add    $0x20,%esp
   11e56:	83 ec 0c             	sub    $0xc,%esp
   11e59:	68 00 00 02 00       	push   $0x20000
   11e5e:	e8 14 06 00 00       	call   12477 <kpanic>
   11e63:	83 c4 10             	add    $0x10,%esp

	// fill in the necessary details
	init_pcb->pid = PID_INIT;
   11e66:	a1 0c 20 02 00       	mov    0x2200c,%eax
   11e6b:	c7 40 18 01 00 00 00 	movl   $0x1,0x18(%eax)
	init_pcb->state = STATE_NEW;
   11e72:	a1 0c 20 02 00       	mov    0x2200c,%eax
   11e77:	c7 40 1c 01 00 00 00 	movl   $0x1,0x1c(%eax)
	init_pcb->priority = PRIO_HIGH;
   11e7e:	a1 0c 20 02 00       	mov    0x2200c,%eax
   11e83:	c7 40 20 00 00 00 00 	movl   $0x0,0x20(%eax)

	// command-line arguments for 'init'
	const char *args[3] = { "init", "+", NULL };
   11e8a:	c7 45 ec 98 ac 01 00 	movl   $0x1ac98,-0x14(%ebp)
   11e91:	c7 45 f0 9d ac 01 00 	movl   $0x1ac9d,-0x10(%ebp)
   11e98:	c7 45 f4 00 00 00 00 	movl   $0x0,-0xc(%ebp)

	// the entry point for 'init'
	extern int init(int,char **);

	// allocate a default-sized stack
	init_pcb->stack = pcb_stack_alloc( N_USTKPAGES );
   11e9f:	8b 1d 0c 20 02 00    	mov    0x2200c,%ebx
   11ea5:	83 ec 0c             	sub    $0xc,%esp
   11ea8:	6a 02                	push   $0x2
   11eaa:	e8 a7 1a 00 00       	call   13956 <pcb_stack_alloc>
   11eaf:	83 c4 10             	add    $0x10,%esp
   11eb2:	89 43 04             	mov    %eax,0x4(%ebx)
	assert( init_pcb->stack != NULL );
   11eb5:	a1 0c 20 02 00       	mov    0x2200c,%eax
   11eba:	8b 40 04             	mov    0x4(%eax),%eax
   11ebd:	85 c0                	test   %eax,%eax
   11ebf:	75 3b                	jne    11efc <main+0x1b1>
   11ec1:	83 ec 04             	sub    $0x4,%esp
   11ec4:	68 9f ac 01 00       	push   $0x1ac9f
   11ec9:	6a 00                	push   $0x0
   11ecb:	68 65 01 00 00       	push   $0x165
   11ed0:	68 79 ac 01 00       	push   $0x1ac79
   11ed5:	68 a0 ad 01 00       	push   $0x1ada0
   11eda:	68 82 ac 01 00       	push   $0x1ac82
   11edf:	68 00 00 02 00       	push   $0x20000
   11ee4:	e8 0e 08 00 00       	call   126f7 <sprint>
   11ee9:	83 c4 20             	add    $0x20,%esp
   11eec:	83 ec 0c             	sub    $0xc,%esp
   11eef:	68 00 00 02 00       	push   $0x20000
   11ef4:	e8 7e 05 00 00       	call   12477 <kpanic>
   11ef9:	83 c4 10             	add    $0x10,%esp
	// remember that we used the default size
	init_pcb->stkpgs = N_USTKPAGES;
   11efc:	a1 0c 20 02 00       	mov    0x2200c,%eax
   11f01:	c7 40 28 02 00 00 00 	movl   $0x2,0x28(%eax)

	// initialize the stack and the context to be restored
	init_pcb->context = stack_setup( init_pcb, (uint32_t) init, args, true );
   11f08:	b9 d2 74 01 00       	mov    $0x174d2,%ecx
   11f0d:	a1 0c 20 02 00       	mov    0x2200c,%eax
   11f12:	8b 1d 0c 20 02 00    	mov    0x2200c,%ebx
   11f18:	6a 01                	push   $0x1
   11f1a:	8d 55 ec             	lea    -0x14(%ebp),%edx
   11f1d:	52                   	push   %edx
   11f1e:	51                   	push   %ecx
   11f1f:	50                   	push   %eax
   11f20:	e8 78 4b 00 00       	call   16a9d <stack_setup>
   11f25:	83 c4 10             	add    $0x10,%esp
   11f28:	89 03                	mov    %eax,(%ebx)
	assert( init_pcb->context != NULL );
   11f2a:	a1 0c 20 02 00       	mov    0x2200c,%eax
   11f2f:	8b 00                	mov    (%eax),%eax
   11f31:	85 c0                	test   %eax,%eax
   11f33:	75 3b                	jne    11f70 <main+0x225>
   11f35:	83 ec 04             	sub    $0x4,%esp
   11f38:	68 b4 ac 01 00       	push   $0x1acb4
   11f3d:	6a 00                	push   $0x0
   11f3f:	68 6b 01 00 00       	push   $0x16b
   11f44:	68 79 ac 01 00       	push   $0x1ac79
   11f49:	68 a0 ad 01 00       	push   $0x1ada0
   11f4e:	68 82 ac 01 00       	push   $0x1ac82
   11f53:	68 00 00 02 00       	push   $0x20000
   11f58:	e8 9a 07 00 00       	call   126f7 <sprint>
   11f5d:	83 c4 20             	add    $0x20,%esp
   11f60:	83 ec 0c             	sub    $0xc,%esp
   11f63:	68 00 00 02 00       	push   $0x20000
   11f68:	e8 0a 05 00 00       	call   12477 <kpanic>
   11f6d:	83 c4 10             	add    $0x10,%esp

	// "i'm my own grandpa...."
	init_pcb->parent = init_pcb;
   11f70:	a1 0c 20 02 00       	mov    0x2200c,%eax
   11f75:	8b 15 0c 20 02 00    	mov    0x2200c,%edx
   11f7b:	89 50 0c             	mov    %edx,0xc(%eax)

	// send it on its merry way
	schedule( init_pcb );
   11f7e:	a1 0c 20 02 00       	mov    0x2200c,%eax
   11f83:	83 ec 0c             	sub    $0xc,%esp
   11f86:	50                   	push   %eax
   11f87:	e8 33 24 00 00       	call   143bf <schedule>
   11f8c:	83 c4 10             	add    $0x10,%esp

	// make sure there's no current process
	current = NULL;
   11f8f:	c7 05 14 20 02 00 00 	movl   $0x0,0x22014
   11f96:	00 00 00 

	// pick a winner
	dispatch();
   11f99:	e8 e2 24 00 00       	call   14480 <dispatch>

	cio_puts( " done.\n" );
   11f9e:	83 ec 0c             	sub    $0xc,%esp
   11fa1:	68 cb ac 01 00       	push   $0x1accb
   11fa6:	e8 02 ef ff ff       	call   10ead <cio_puts>
   11fab:	83 c4 10             	add    $0x10,%esp

	delay( DELAY_1_SEC );
   11fae:	83 ec 0c             	sub    $0xc,%esp
   11fb1:	6a 28                	push   $0x28
   11fb3:	e8 e3 37 00 00       	call   1579b <delay>
   11fb8:	83 c4 10             	add    $0x10,%esp

#ifdef TRACE_CX

	// wipe out whatever is on the screen at the moment
	cio_clearscreen();
   11fbb:	e8 cf ef ff ff       	call   10f8f <cio_clearscreen>

	// define a scrolling region in the top 7 lines of the screen
	cio_setscroll( 0, 7, 99, 99 );
   11fc0:	6a 63                	push   $0x63
   11fc2:	6a 63                	push   $0x63
   11fc4:	6a 07                	push   $0x7
   11fc6:	6a 00                	push   $0x0
   11fc8:	e8 26 ec ff ff       	call   10bf3 <cio_setscroll>
   11fcd:	83 c4 10             	add    $0x10,%esp

	// clear it
	cio_clearscroll();
   11fd0:	e8 41 ef ff ff       	call   10f16 <cio_clearscroll>

	// clear the top line
	cio_puts_at( 0, 0, "*                                                                               " );
   11fd5:	83 ec 04             	sub    $0x4,%esp
   11fd8:	68 d4 ac 01 00       	push   $0x1acd4
   11fdd:	6a 00                	push   $0x0
   11fdf:	6a 00                	push   $0x0
   11fe1:	e8 85 ee ff ff       	call   10e6b <cio_puts_at>
   11fe6:	83 c4 10             	add    $0x10,%esp
	// separator
	cio_puts_at( 0, 6, "================================================================================" );
   11fe9:	83 ec 04             	sub    $0x4,%esp
   11fec:	68 28 ad 01 00       	push   $0x1ad28
   11ff1:	6a 06                	push   $0x6
   11ff3:	6a 00                	push   $0x0
   11ff5:	e8 71 ee ff ff       	call   10e6b <cio_puts_at>
   11ffa:	83 c4 10             	add    $0x10,%esp

	/*
	** END OF TERM-SPECIFIC CODE
	*/

	sio_flush( SIO_RX | SIO_TX );
   11ffd:	83 ec 0c             	sub    $0xc,%esp
   12000:	6a 03                	push   $0x3
   12002:	e8 45 30 00 00       	call   1504c <sio_flush>
   12007:	83 c4 10             	add    $0x10,%esp
	sio_enable( SIO_RX );
   1200a:	83 ec 0c             	sub    $0xc,%esp
   1200d:	6a 02                	push   $0x2
   1200f:	e8 48 2f 00 00       	call   14f5c <sio_enable>
   12014:	83 c4 10             	add    $0x10,%esp

	cio_puts( "System initialization complete.\n" );
   12017:	83 ec 0c             	sub    $0xc,%esp
   1201a:	68 7c ad 01 00       	push   $0x1ad7c
   1201f:	e8 89 ee ff ff       	call   10ead <cio_puts>
   12024:	83 c4 10             	add    $0x10,%esp
	cio_puts( "-------------------------------\n" );
   12027:	83 ec 0c             	sub    $0xc,%esp
   1202a:	68 ec ab 01 00       	push   $0x1abec
   1202f:	e8 79 ee ff ff       	call   10ead <cio_puts>
   12034:	83 c4 10             	add    $0x10,%esp
	pcb_dump( "Current: ", current, true );

	delay( DELAY_2_SEC );
#endif

	return 0;
   12037:	b8 00 00 00 00       	mov    $0x0,%eax
}
   1203c:	8d 65 f8             	lea    -0x8(%ebp),%esp
   1203f:	59                   	pop    %ecx
   12040:	5b                   	pop    %ebx
   12041:	5d                   	pop    %ebp
   12042:	8d 61 fc             	lea    -0x4(%ecx),%esp
   12045:	c3                   	ret    

00012046 <blkmov>:
**
** @param dst   Destination buffer
** @param src   Source buffer
** @param len   Buffer size (in bytes)
*/
void blkmov( void *dst, const void *src, register uint32_t len ) {
   12046:	55                   	push   %ebp
   12047:	89 e5                	mov    %esp,%ebp
   12049:	56                   	push   %esi
   1204a:	53                   	push   %ebx
   1204b:	8b 45 10             	mov    0x10(%ebp),%eax

	// verify that the addresses are aligned and
	// the length is a multiple of four bytes
	if( (((uint32_t)dst)&0x3) != 0 ||
   1204e:	8b 55 08             	mov    0x8(%ebp),%edx
   12051:	83 e2 03             	and    $0x3,%edx
   12054:	85 d2                	test   %edx,%edx
   12056:	75 13                	jne    1206b <blkmov+0x25>
		(((uint32_t)src)&0x3) != 0 ||
   12058:	8b 55 0c             	mov    0xc(%ebp),%edx
   1205b:	83 e2 03             	and    $0x3,%edx
	if( (((uint32_t)dst)&0x3) != 0 ||
   1205e:	85 d2                	test   %edx,%edx
   12060:	75 09                	jne    1206b <blkmov+0x25>
		(len & 0x3) != 0 ) {
   12062:	89 c2                	mov    %eax,%edx
   12064:	83 e2 03             	and    $0x3,%edx
		(((uint32_t)src)&0x3) != 0 ||
   12067:	85 d2                	test   %edx,%edx
   12069:	74 14                	je     1207f <blkmov+0x39>
		// something isn't aligned, so just use memmove()
		memmove( dst, src, len );
   1206b:	83 ec 04             	sub    $0x4,%esp
   1206e:	50                   	push   %eax
   1206f:	ff 75 0c             	pushl  0xc(%ebp)
   12072:	ff 75 08             	pushl  0x8(%ebp)
   12075:	e8 48 05 00 00       	call   125c2 <memmove>
   1207a:	83 c4 10             	add    $0x10,%esp
		return;
   1207d:	eb 5a                	jmp    120d9 <blkmov+0x93>
	}

	// everything is nicely aligned, so off we go
	register uint32_t *dest = dst;
   1207f:	8b 5d 08             	mov    0x8(%ebp),%ebx
	register const uint32_t *source = src;
   12082:	8b 75 0c             	mov    0xc(%ebp),%esi

	// now copying 32-bit values
	len /= 4;
   12085:	c1 e8 02             	shr    $0x2,%eax

	if( source < dest && (source + len) > dest ) {
   12088:	39 de                	cmp    %ebx,%esi
   1208a:	73 44                	jae    120d0 <blkmov+0x8a>
   1208c:	8d 14 85 00 00 00 00 	lea    0x0(,%eax,4),%edx
   12093:	01 f2                	add    %esi,%edx
   12095:	39 d3                	cmp    %edx,%ebx
   12097:	73 37                	jae    120d0 <blkmov+0x8a>
		source += len;
   12099:	8d 14 85 00 00 00 00 	lea    0x0(,%eax,4),%edx
   120a0:	01 d6                	add    %edx,%esi
		dest += len;
   120a2:	8d 14 85 00 00 00 00 	lea    0x0(,%eax,4),%edx
   120a9:	01 d3                	add    %edx,%ebx
		while( len-- > 0 ) {
   120ab:	eb 0a                	jmp    120b7 <blkmov+0x71>
			*--dest = *--source;
   120ad:	83 ee 04             	sub    $0x4,%esi
   120b0:	83 eb 04             	sub    $0x4,%ebx
   120b3:	8b 16                	mov    (%esi),%edx
   120b5:	89 13                	mov    %edx,(%ebx)
		while( len-- > 0 ) {
   120b7:	89 c2                	mov    %eax,%edx
   120b9:	8d 42 ff             	lea    -0x1(%edx),%eax
   120bc:	85 d2                	test   %edx,%edx
   120be:	75 ed                	jne    120ad <blkmov+0x67>
	if( source < dest && (source + len) > dest ) {
   120c0:	eb 17                	jmp    120d9 <blkmov+0x93>
		}
	} else {
		while( len-- ) {
			*dest++ = *source++;
   120c2:	89 f1                	mov    %esi,%ecx
   120c4:	8d 71 04             	lea    0x4(%ecx),%esi
   120c7:	89 da                	mov    %ebx,%edx
   120c9:	8d 5a 04             	lea    0x4(%edx),%ebx
   120cc:	8b 09                	mov    (%ecx),%ecx
   120ce:	89 0a                	mov    %ecx,(%edx)
		while( len-- ) {
   120d0:	89 c2                	mov    %eax,%edx
   120d2:	8d 42 ff             	lea    -0x1(%edx),%eax
   120d5:	85 d2                	test   %edx,%edx
   120d7:	75 e9                	jne    120c2 <blkmov+0x7c>
		}
	}
}
   120d9:	8d 65 f8             	lea    -0x8(%ebp),%esp
   120dc:	5b                   	pop    %ebx
   120dd:	5e                   	pop    %esi
   120de:	5d                   	pop    %ebp
   120df:	c3                   	ret    

000120e0 <bound>:
** @param value  Value to be constrained
** @param max    Upper bound
**
** @return The constrained value
*/
uint32_t bound( uint32_t min, uint32_t value, uint32_t max ) {
   120e0:	55                   	push   %ebp
   120e1:	89 e5                	mov    %esp,%ebp
	if( value < min ){
   120e3:	8b 45 0c             	mov    0xc(%ebp),%eax
   120e6:	3b 45 08             	cmp    0x8(%ebp),%eax
   120e9:	73 06                	jae    120f1 <bound+0x11>
		value = min;
   120eb:	8b 45 08             	mov    0x8(%ebp),%eax
   120ee:	89 45 0c             	mov    %eax,0xc(%ebp)
	}
	if( value > max ){
   120f1:	8b 45 0c             	mov    0xc(%ebp),%eax
   120f4:	3b 45 10             	cmp    0x10(%ebp),%eax
   120f7:	76 06                	jbe    120ff <bound+0x1f>
		value = max;
   120f9:	8b 45 10             	mov    0x10(%ebp),%eax
   120fc:	89 45 0c             	mov    %eax,0xc(%ebp)
	}
	return value;
   120ff:	8b 45 0c             	mov    0xc(%ebp),%eax
}
   12102:	5d                   	pop    %ebp
   12103:	c3                   	ret    

00012104 <cvtdec>:
** @return The number of characters placed into the buffer
**          (not including the NUL)
**
** NOTE:  assumes buf is large enough to hold the resulting string
*/
int cvtdec( char *buf, int32_t value ) {
   12104:	55                   	push   %ebp
   12105:	89 e5                	mov    %esp,%ebp
   12107:	83 ec 18             	sub    $0x18,%esp
	char *bp = buf;
   1210a:	8b 45 08             	mov    0x8(%ebp),%eax
   1210d:	89 45 f4             	mov    %eax,-0xc(%ebp)

	if( value < 0 ) {
   12110:	83 7d 0c 00          	cmpl   $0x0,0xc(%ebp)
   12114:	79 0f                	jns    12125 <cvtdec+0x21>
		*bp++ = '-';
   12116:	8b 45 f4             	mov    -0xc(%ebp),%eax
   12119:	8d 50 01             	lea    0x1(%eax),%edx
   1211c:	89 55 f4             	mov    %edx,-0xc(%ebp)
   1211f:	c6 00 2d             	movb   $0x2d,(%eax)
		value = -value;
   12122:	f7 5d 0c             	negl   0xc(%ebp)
	}

	bp = cvtdec0( bp, value );
   12125:	83 ec 08             	sub    $0x8,%esp
   12128:	ff 75 0c             	pushl  0xc(%ebp)
   1212b:	ff 75 f4             	pushl  -0xc(%ebp)
   1212e:	e8 18 00 00 00       	call   1214b <cvtdec0>
   12133:	83 c4 10             	add    $0x10,%esp
   12136:	89 45 f4             	mov    %eax,-0xc(%ebp)
	*bp  = '\0';
   12139:	8b 45 f4             	mov    -0xc(%ebp),%eax
   1213c:	c6 00 00             	movb   $0x0,(%eax)

	return( bp - buf );
   1213f:	8b 55 f4             	mov    -0xc(%ebp),%edx
   12142:	8b 45 08             	mov    0x8(%ebp),%eax
   12145:	29 c2                	sub    %eax,%edx
   12147:	89 d0                	mov    %edx,%eax
}
   12149:	c9                   	leave  
   1214a:	c3                   	ret    

0001214b <cvtdec0>:
** @return The number of characters placed into the buffer
**          (not including the NUL)
**
** NOTE:  assumes buf is large enough to hold the resulting string
*/
char *cvtdec0( char *buf, int value ) {
   1214b:	55                   	push   %ebp
   1214c:	89 e5                	mov    %esp,%ebp
   1214e:	83 ec 18             	sub    $0x18,%esp
	int quotient;

	quotient = value / 10;
   12151:	8b 4d 0c             	mov    0xc(%ebp),%ecx
   12154:	ba 67 66 66 66       	mov    $0x66666667,%edx
   12159:	89 c8                	mov    %ecx,%eax
   1215b:	f7 ea                	imul   %edx
   1215d:	c1 fa 02             	sar    $0x2,%edx
   12160:	89 c8                	mov    %ecx,%eax
   12162:	c1 f8 1f             	sar    $0x1f,%eax
   12165:	29 c2                	sub    %eax,%edx
   12167:	89 d0                	mov    %edx,%eax
   12169:	89 45 f4             	mov    %eax,-0xc(%ebp)
	if( quotient < 0 ) {
   1216c:	83 7d f4 00          	cmpl   $0x0,-0xc(%ebp)
   12170:	79 0e                	jns    12180 <cvtdec0+0x35>
		quotient = 214748364;
   12172:	c7 45 f4 cc cc cc 0c 	movl   $0xccccccc,-0xc(%ebp)
		value = 8;
   12179:	c7 45 0c 08 00 00 00 	movl   $0x8,0xc(%ebp)
	}
	if( quotient != 0 ) {
   12180:	83 7d f4 00          	cmpl   $0x0,-0xc(%ebp)
   12184:	74 14                	je     1219a <cvtdec0+0x4f>
		buf = cvtdec0( buf, quotient );
   12186:	83 ec 08             	sub    $0x8,%esp
   12189:	ff 75 f4             	pushl  -0xc(%ebp)
   1218c:	ff 75 08             	pushl  0x8(%ebp)
   1218f:	e8 b7 ff ff ff       	call   1214b <cvtdec0>
   12194:	83 c4 10             	add    $0x10,%esp
   12197:	89 45 08             	mov    %eax,0x8(%ebp)
	}
	*buf++ = value % 10 + '0';
   1219a:	8b 4d 0c             	mov    0xc(%ebp),%ecx
   1219d:	ba 67 66 66 66       	mov    $0x66666667,%edx
   121a2:	89 c8                	mov    %ecx,%eax
   121a4:	f7 ea                	imul   %edx
   121a6:	c1 fa 02             	sar    $0x2,%edx
   121a9:	89 c8                	mov    %ecx,%eax
   121ab:	c1 f8 1f             	sar    $0x1f,%eax
   121ae:	29 c2                	sub    %eax,%edx
   121b0:	89 d0                	mov    %edx,%eax
   121b2:	c1 e0 02             	shl    $0x2,%eax
   121b5:	01 d0                	add    %edx,%eax
   121b7:	01 c0                	add    %eax,%eax
   121b9:	29 c1                	sub    %eax,%ecx
   121bb:	89 ca                	mov    %ecx,%edx
   121bd:	89 d0                	mov    %edx,%eax
   121bf:	8d 48 30             	lea    0x30(%eax),%ecx
   121c2:	8b 45 08             	mov    0x8(%ebp),%eax
   121c5:	8d 50 01             	lea    0x1(%eax),%edx
   121c8:	89 55 08             	mov    %edx,0x8(%ebp)
   121cb:	89 ca                	mov    %ecx,%edx
   121cd:	88 10                	mov    %dl,(%eax)
	return buf;
   121cf:	8b 45 08             	mov    0x8(%ebp),%eax
}
   121d2:	c9                   	leave  
   121d3:	c3                   	ret    

000121d4 <cvthex>:
** @return The number of characters placed into the buffer
**          (not including the NUL)
**
** NOTE:  assumes buf is large enough to hold the resulting string
*/
int cvthex( char *buf, uint32_t value ) {
   121d4:	55                   	push   %ebp
   121d5:	89 e5                	mov    %esp,%ebp
   121d7:	83 ec 20             	sub    $0x20,%esp
	const char hexdigits[] = "0123456789ABCDEF";
   121da:	c7 45 e3 30 31 32 33 	movl   $0x33323130,-0x1d(%ebp)
   121e1:	c7 45 e7 34 35 36 37 	movl   $0x37363534,-0x19(%ebp)
   121e8:	c7 45 eb 38 39 41 42 	movl   $0x42413938,-0x15(%ebp)
   121ef:	c7 45 ef 43 44 45 46 	movl   $0x46454443,-0x11(%ebp)
   121f6:	c6 45 f3 00          	movb   $0x0,-0xd(%ebp)
	int chars_stored = 0;
   121fa:	c7 45 fc 00 00 00 00 	movl   $0x0,-0x4(%ebp)

	for( int i = 0; i < 8; i += 1 ) {
   12201:	c7 45 f8 00 00 00 00 	movl   $0x0,-0x8(%ebp)
   12208:	eb 43                	jmp    1224d <cvthex+0x79>
		uint32_t val = value & 0xf0000000;
   1220a:	8b 45 0c             	mov    0xc(%ebp),%eax
   1220d:	25 00 00 00 f0       	and    $0xf0000000,%eax
   12212:	89 45 f4             	mov    %eax,-0xc(%ebp)
		if( chars_stored || val != 0 || i == 7 ) {
   12215:	83 7d fc 00          	cmpl   $0x0,-0x4(%ebp)
   12219:	75 0c                	jne    12227 <cvthex+0x53>
   1221b:	83 7d f4 00          	cmpl   $0x0,-0xc(%ebp)
   1221f:	75 06                	jne    12227 <cvthex+0x53>
   12221:	83 7d f8 07          	cmpl   $0x7,-0x8(%ebp)
   12225:	75 1e                	jne    12245 <cvthex+0x71>
			++chars_stored;
   12227:	83 45 fc 01          	addl   $0x1,-0x4(%ebp)
			val = (val >> 28) & 0xf;
   1222b:	c1 6d f4 1c          	shrl   $0x1c,-0xc(%ebp)
			*buf++ = hexdigits[val];
   1222f:	8b 45 08             	mov    0x8(%ebp),%eax
   12232:	8d 50 01             	lea    0x1(%eax),%edx
   12235:	89 55 08             	mov    %edx,0x8(%ebp)
   12238:	8d 4d e3             	lea    -0x1d(%ebp),%ecx
   1223b:	8b 55 f4             	mov    -0xc(%ebp),%edx
   1223e:	01 ca                	add    %ecx,%edx
   12240:	0f b6 12             	movzbl (%edx),%edx
   12243:	88 10                	mov    %dl,(%eax)
		}
		value <<= 4;
   12245:	c1 65 0c 04          	shll   $0x4,0xc(%ebp)
	for( int i = 0; i < 8; i += 1 ) {
   12249:	83 45 f8 01          	addl   $0x1,-0x8(%ebp)
   1224d:	83 7d f8 07          	cmpl   $0x7,-0x8(%ebp)
   12251:	7e b7                	jle    1220a <cvthex+0x36>
	}

	*buf = '\0';
   12253:	8b 45 08             	mov    0x8(%ebp),%eax
   12256:	c6 00 00             	movb   $0x0,(%eax)

	return( chars_stored );
   12259:	8b 45 fc             	mov    -0x4(%ebp),%eax
}
   1225c:	c9                   	leave  
   1225d:	c3                   	ret    

0001225e <cvtoct>:
** @return The number of characters placed into the buffer
**          (not including the NUL)
**
** NOTE:  assumes buf is large enough to hold the resulting string
*/
int cvtoct( char *buf, uint32_t value ) {
   1225e:	55                   	push   %ebp
   1225f:	89 e5                	mov    %esp,%ebp
   12261:	83 ec 10             	sub    $0x10,%esp
	int i;
	int chars_stored = 0;
   12264:	c7 45 f8 00 00 00 00 	movl   $0x0,-0x8(%ebp)
	char *bp = buf;
   1226b:	8b 45 08             	mov    0x8(%ebp),%eax
   1226e:	89 45 f4             	mov    %eax,-0xc(%ebp)
	uint32_t val;

	val = ( value & 0xc0000000 );
   12271:	8b 45 0c             	mov    0xc(%ebp),%eax
   12274:	25 00 00 00 c0       	and    $0xc0000000,%eax
   12279:	89 45 f0             	mov    %eax,-0x10(%ebp)
	val >>= 30;
   1227c:	c1 6d f0 1e          	shrl   $0x1e,-0x10(%ebp)
	for( i = 0; i < 11; i += 1 ){
   12280:	c7 45 fc 00 00 00 00 	movl   $0x0,-0x4(%ebp)
   12287:	eb 47                	jmp    122d0 <cvtoct+0x72>

		if( i == 10 || val != 0 || chars_stored ) {
   12289:	83 7d fc 0a          	cmpl   $0xa,-0x4(%ebp)
   1228d:	74 0c                	je     1229b <cvtoct+0x3d>
   1228f:	83 7d f0 00          	cmpl   $0x0,-0x10(%ebp)
   12293:	75 06                	jne    1229b <cvtoct+0x3d>
   12295:	83 7d f8 00          	cmpl   $0x0,-0x8(%ebp)
   12299:	74 1e                	je     122b9 <cvtoct+0x5b>
			chars_stored = 1;
   1229b:	c7 45 f8 01 00 00 00 	movl   $0x1,-0x8(%ebp)
			val &= 0x7;
   122a2:	83 65 f0 07          	andl   $0x7,-0x10(%ebp)
			*bp++ = val + '0';
   122a6:	8b 45 f0             	mov    -0x10(%ebp),%eax
   122a9:	8d 48 30             	lea    0x30(%eax),%ecx
   122ac:	8b 45 f4             	mov    -0xc(%ebp),%eax
   122af:	8d 50 01             	lea    0x1(%eax),%edx
   122b2:	89 55 f4             	mov    %edx,-0xc(%ebp)
   122b5:	89 ca                	mov    %ecx,%edx
   122b7:	88 10                	mov    %dl,(%eax)
		}
		value <<= 3;
   122b9:	c1 65 0c 03          	shll   $0x3,0xc(%ebp)
		val = ( value & 0xe0000000 );
   122bd:	8b 45 0c             	mov    0xc(%ebp),%eax
   122c0:	25 00 00 00 e0       	and    $0xe0000000,%eax
   122c5:	89 45 f0             	mov    %eax,-0x10(%ebp)
		val >>= 29;
   122c8:	c1 6d f0 1d          	shrl   $0x1d,-0x10(%ebp)
	for( i = 0; i < 11; i += 1 ){
   122cc:	83 45 fc 01          	addl   $0x1,-0x4(%ebp)
   122d0:	83 7d fc 0a          	cmpl   $0xa,-0x4(%ebp)
   122d4:	7e b3                	jle    12289 <cvtoct+0x2b>
	}
	*bp = '\0';
   122d6:	8b 45 f4             	mov    -0xc(%ebp),%eax
   122d9:	c6 00 00             	movb   $0x0,(%eax)

	return bp - buf;
   122dc:	8b 55 f4             	mov    -0xc(%ebp),%edx
   122df:	8b 45 08             	mov    0x8(%ebp),%eax
   122e2:	29 c2                	sub    %eax,%edx
   122e4:	89 d0                	mov    %edx,%eax
}
   122e6:	c9                   	leave  
   122e7:	c3                   	ret    

000122e8 <cvtuns>:
**
** @return Length of the resulting buffer
**
** NOTE:  assumes buf is large enough to hold the resulting string
*/
int cvtuns( char *buf, uint32_t value ) {
   122e8:	55                   	push   %ebp
   122e9:	89 e5                	mov    %esp,%ebp
   122eb:	83 ec 18             	sub    $0x18,%esp
	char    *bp = buf;
   122ee:	8b 45 08             	mov    0x8(%ebp),%eax
   122f1:	89 45 f4             	mov    %eax,-0xc(%ebp)

	bp = cvtuns0( bp, value );
   122f4:	83 ec 08             	sub    $0x8,%esp
   122f7:	ff 75 0c             	pushl  0xc(%ebp)
   122fa:	ff 75 f4             	pushl  -0xc(%ebp)
   122fd:	e8 18 00 00 00       	call   1231a <cvtuns0>
   12302:	83 c4 10             	add    $0x10,%esp
   12305:	89 45 f4             	mov    %eax,-0xc(%ebp)
	*bp = '\0';
   12308:	8b 45 f4             	mov    -0xc(%ebp),%eax
   1230b:	c6 00 00             	movb   $0x0,(%eax)

	return bp - buf;
   1230e:	8b 55 f4             	mov    -0xc(%ebp),%edx
   12311:	8b 45 08             	mov    0x8(%ebp),%eax
   12314:	29 c2                	sub    %eax,%edx
   12316:	89 d0                	mov    %edx,%eax
}
   12318:	c9                   	leave  
   12319:	c3                   	ret    

0001231a <cvtuns0>:
**
** @return Pointer to the first unused byte in the buffer
**
** NOTE:  assumes buf is large enough to hold the resulting string
*/
char *cvtuns0( char *buf, uint32_t value ) {
   1231a:	55                   	push   %ebp
   1231b:	89 e5                	mov    %esp,%ebp
   1231d:	83 ec 18             	sub    $0x18,%esp
	uint32_t quotient;

	quotient = value / 10;
   12320:	8b 45 0c             	mov    0xc(%ebp),%eax
   12323:	ba cd cc cc cc       	mov    $0xcccccccd,%edx
   12328:	f7 e2                	mul    %edx
   1232a:	89 d0                	mov    %edx,%eax
   1232c:	c1 e8 03             	shr    $0x3,%eax
   1232f:	89 45 f4             	mov    %eax,-0xc(%ebp)
	if( quotient != 0 ){
   12332:	83 7d f4 00          	cmpl   $0x0,-0xc(%ebp)
   12336:	74 15                	je     1234d <cvtuns0+0x33>
		buf = cvtdec0( buf, quotient );
   12338:	8b 45 f4             	mov    -0xc(%ebp),%eax
   1233b:	83 ec 08             	sub    $0x8,%esp
   1233e:	50                   	push   %eax
   1233f:	ff 75 08             	pushl  0x8(%ebp)
   12342:	e8 04 fe ff ff       	call   1214b <cvtdec0>
   12347:	83 c4 10             	add    $0x10,%esp
   1234a:	89 45 08             	mov    %eax,0x8(%ebp)
	}
	*buf++ = value % 10 + '0';
   1234d:	8b 4d 0c             	mov    0xc(%ebp),%ecx
   12350:	ba cd cc cc cc       	mov    $0xcccccccd,%edx
   12355:	89 c8                	mov    %ecx,%eax
   12357:	f7 e2                	mul    %edx
   12359:	c1 ea 03             	shr    $0x3,%edx
   1235c:	89 d0                	mov    %edx,%eax
   1235e:	c1 e0 02             	shl    $0x2,%eax
   12361:	01 d0                	add    %edx,%eax
   12363:	01 c0                	add    %eax,%eax
   12365:	29 c1                	sub    %eax,%ecx
   12367:	89 ca                	mov    %ecx,%edx
   12369:	89 d0                	mov    %edx,%eax
   1236b:	8d 48 30             	lea    0x30(%eax),%ecx
   1236e:	8b 45 08             	mov    0x8(%ebp),%eax
   12371:	8d 50 01             	lea    0x1(%eax),%edx
   12374:	89 55 08             	mov    %edx,0x8(%ebp)
   12377:	89 ca                	mov    %ecx,%edx
   12379:	88 10                	mov    %dl,(%eax)
	return buf;
   1237b:	8b 45 08             	mov    0x8(%ebp),%eax
}
   1237e:	c9                   	leave  
   1237f:	c3                   	ret    

00012380 <put_char_or_code>:
** is a non-printing character, in which case its hex code
** is printed
**
** @param ch    The character to be printed
*/
void put_char_or_code( int ch ) {
   12380:	55                   	push   %ebp
   12381:	89 e5                	mov    %esp,%ebp
   12383:	83 ec 08             	sub    $0x8,%esp

	if( ch >= ' ' && ch < 0x7f ) {
   12386:	83 7d 08 1f          	cmpl   $0x1f,0x8(%ebp)
   1238a:	7e 17                	jle    123a3 <put_char_or_code+0x23>
   1238c:	83 7d 08 7e          	cmpl   $0x7e,0x8(%ebp)
   12390:	7f 11                	jg     123a3 <put_char_or_code+0x23>
		cio_putchar( ch );
   12392:	8b 45 08             	mov    0x8(%ebp),%eax
   12395:	83 ec 0c             	sub    $0xc,%esp
   12398:	50                   	push   %eax
   12399:	e8 cf e9 ff ff       	call   10d6d <cio_putchar>
   1239e:	83 c4 10             	add    $0x10,%esp
   123a1:	eb 13                	jmp    123b6 <put_char_or_code+0x36>
	} else {
		cio_printf( "\\x%02x", ch );
   123a3:	83 ec 08             	sub    $0x8,%esp
   123a6:	ff 75 08             	pushl  0x8(%ebp)
   123a9:	68 a8 ad 01 00       	push   $0x1ada8
   123ae:	e8 74 f1 ff ff       	call   11527 <cio_printf>
   123b3:	83 c4 10             	add    $0x10,%esp
	}
}
   123b6:	90                   	nop
   123b7:	c9                   	leave  
   123b8:	c3                   	ret    

000123b9 <backtrace>:
** Perform a stack backtrace
**
** @param ebp   Initial EBP to use
** @param args  Number of function argument values to print
*/
void backtrace( uint32_t *ebp, uint_t args ) {
   123b9:	55                   	push   %ebp
   123ba:	89 e5                	mov    %esp,%ebp
   123bc:	83 ec 18             	sub    $0x18,%esp

	cio_puts( "Trace:  " );
   123bf:	83 ec 0c             	sub    $0xc,%esp
   123c2:	68 af ad 01 00       	push   $0x1adaf
   123c7:	e8 e1 ea ff ff       	call   10ead <cio_puts>
   123cc:	83 c4 10             	add    $0x10,%esp
	if( ebp == NULL ) {
   123cf:	83 7d 08 00          	cmpl   $0x0,0x8(%ebp)
   123d3:	75 15                	jne    123ea <backtrace+0x31>
		cio_puts( "NULL ebp, no trace possible\n" );
   123d5:	83 ec 0c             	sub    $0xc,%esp
   123d8:	68 b8 ad 01 00       	push   $0x1adb8
   123dd:	e8 cb ea ff ff       	call   10ead <cio_puts>
   123e2:	83 c4 10             	add    $0x10,%esp
		return;
   123e5:	e9 8b 00 00 00       	jmp    12475 <backtrace+0xbc>
	} else {
		cio_putchar( '\n' );
   123ea:	83 ec 0c             	sub    $0xc,%esp
   123ed:	6a 0a                	push   $0xa
   123ef:	e8 79 e9 ff ff       	call   10d6d <cio_putchar>
   123f4:	83 c4 10             	add    $0x10,%esp
	}

	while( ebp != NULL ){
   123f7:	eb 76                	jmp    1246f <backtrace+0xb6>

		// get return address and report it and EBP
		uint32_t ret = ebp[1];
   123f9:	8b 45 08             	mov    0x8(%ebp),%eax
   123fc:	8b 40 04             	mov    0x4(%eax),%eax
   123ff:	89 45 f0             	mov    %eax,-0x10(%ebp)
		cio_printf( " ebp %08x ret %08x args", (uint32_t) ebp, ret );
   12402:	8b 45 08             	mov    0x8(%ebp),%eax
   12405:	83 ec 04             	sub    $0x4,%esp
   12408:	ff 75 f0             	pushl  -0x10(%ebp)
   1240b:	50                   	push   %eax
   1240c:	68 d5 ad 01 00       	push   $0x1add5
   12411:	e8 11 f1 ff ff       	call   11527 <cio_printf>
   12416:	83 c4 10             	add    $0x10,%esp

		// print the requested number of function arguments
		for( uint_t i = 0; i < args; ++i ) {
   12419:	c7 45 f4 00 00 00 00 	movl   $0x0,-0xc(%ebp)
   12420:	eb 30                	jmp    12452 <backtrace+0x99>
			cio_printf( " [%u] %08x", i+1, ebp[2+i] );
   12422:	8b 45 f4             	mov    -0xc(%ebp),%eax
   12425:	83 c0 02             	add    $0x2,%eax
   12428:	8d 14 85 00 00 00 00 	lea    0x0(,%eax,4),%edx
   1242f:	8b 45 08             	mov    0x8(%ebp),%eax
   12432:	01 d0                	add    %edx,%eax
   12434:	8b 00                	mov    (%eax),%eax
   12436:	8b 55 f4             	mov    -0xc(%ebp),%edx
   12439:	83 c2 01             	add    $0x1,%edx
   1243c:	83 ec 04             	sub    $0x4,%esp
   1243f:	50                   	push   %eax
   12440:	52                   	push   %edx
   12441:	68 ed ad 01 00       	push   $0x1aded
   12446:	e8 dc f0 ff ff       	call   11527 <cio_printf>
   1244b:	83 c4 10             	add    $0x10,%esp
		for( uint_t i = 0; i < args; ++i ) {
   1244e:	83 45 f4 01          	addl   $0x1,-0xc(%ebp)
   12452:	8b 45 f4             	mov    -0xc(%ebp),%eax
   12455:	3b 45 0c             	cmp    0xc(%ebp),%eax
   12458:	72 c8                	jb     12422 <backtrace+0x69>
		}
		cio_putchar( '\n' );
   1245a:	83 ec 0c             	sub    $0xc,%esp
   1245d:	6a 0a                	push   $0xa
   1245f:	e8 09 e9 ff ff       	call   10d6d <cio_putchar>
   12464:	83 c4 10             	add    $0x10,%esp

		// follow the chain
		ebp = (uint32_t *) *ebp;
   12467:	8b 45 08             	mov    0x8(%ebp),%eax
   1246a:	8b 00                	mov    (%eax),%eax
   1246c:	89 45 08             	mov    %eax,0x8(%ebp)
	while( ebp != NULL ){
   1246f:	83 7d 08 00          	cmpl   $0x0,0x8(%ebp)
   12473:	75 84                	jne    123f9 <backtrace+0x40>
	}
}
   12475:	c9                   	leave  
   12476:	c3                   	ret    

00012477 <kpanic>:
** (e.g., printing a stack traceback)
**
** @param msg[in]  String containing a relevant message to be printed,
**				   or NULL
*/
void kpanic( const char *msg ) {
   12477:	55                   	push   %ebp
   12478:	89 e5                	mov    %esp,%ebp
   1247a:	83 ec 18             	sub    $0x18,%esp

	cio_puts( "\n\n***** KERNEL PANIC *****\n\n" );
   1247d:	83 ec 0c             	sub    $0xc,%esp
   12480:	68 f8 ad 01 00       	push   $0x1adf8
   12485:	e8 23 ea ff ff       	call   10ead <cio_puts>
   1248a:	83 c4 10             	add    $0x10,%esp

	if( msg ) {
   1248d:	83 7d 08 00          	cmpl   $0x0,0x8(%ebp)
   12491:	74 13                	je     124a6 <kpanic+0x2f>
		cio_printf( "%s\n", msg );
   12493:	83 ec 08             	sub    $0x8,%esp
   12496:	ff 75 08             	pushl  0x8(%ebp)
   12499:	68 15 ae 01 00       	push   $0x1ae15
   1249e:	e8 84 f0 ff ff       	call   11527 <cio_printf>
   124a3:	83 c4 10             	add    $0x10,%esp
	}

	delay( DELAY_5_SEC );   // approximately
   124a6:	83 ec 0c             	sub    $0xc,%esp
   124a9:	68 c8 00 00 00       	push   $0xc8
   124ae:	e8 e8 32 00 00       	call   1579b <delay>
   124b3:	83 c4 10             	add    $0x10,%esp

	// dump a bunch of potentially useful information

	// dump the contents of the current PCB
	pcb_dump( "Current", current, true );
   124b6:	a1 14 20 02 00       	mov    0x22014,%eax
   124bb:	83 ec 04             	sub    $0x4,%esp
   124be:	6a 01                	push   $0x1
   124c0:	50                   	push   %eax
   124c1:	68 19 ae 01 00       	push   $0x1ae19
   124c6:	e8 f3 21 00 00       	call   146be <pcb_dump>
   124cb:	83 c4 10             	add    $0x10,%esp

	// dump the basic info about what's in the process table
	ptable_dump_counts();
   124ce:	e8 28 25 00 00       	call   149fb <ptable_dump_counts>

	// dump information about the queues
	pcb_queue_dump( "R", ready, true );
   124d3:	a1 d0 24 02 00       	mov    0x224d0,%eax
   124d8:	83 ec 04             	sub    $0x4,%esp
   124db:	6a 01                	push   $0x1
   124dd:	50                   	push   %eax
   124de:	68 21 ae 01 00       	push   $0x1ae21
   124e3:	e8 15 23 00 00       	call   147fd <pcb_queue_dump>
   124e8:	83 c4 10             	add    $0x10,%esp
	pcb_queue_dump( "W", waiting, true );
   124eb:	a1 10 20 02 00       	mov    0x22010,%eax
   124f0:	83 ec 04             	sub    $0x4,%esp
   124f3:	6a 01                	push   $0x1
   124f5:	50                   	push   %eax
   124f6:	68 23 ae 01 00       	push   $0x1ae23
   124fb:	e8 fd 22 00 00       	call   147fd <pcb_queue_dump>
   12500:	83 c4 10             	add    $0x10,%esp
	pcb_queue_dump( "S", sleeping, true );
   12503:	a1 08 20 02 00       	mov    0x22008,%eax
   12508:	83 ec 04             	sub    $0x4,%esp
   1250b:	6a 01                	push   $0x1
   1250d:	50                   	push   %eax
   1250e:	68 25 ae 01 00       	push   $0x1ae25
   12513:	e8 e5 22 00 00       	call   147fd <pcb_queue_dump>
   12518:	83 c4 10             	add    $0x10,%esp
	pcb_queue_dump( "Z", zombie, true );
   1251b:	a1 18 20 02 00       	mov    0x22018,%eax
   12520:	83 ec 04             	sub    $0x4,%esp
   12523:	6a 01                	push   $0x1
   12525:	50                   	push   %eax
   12526:	68 27 ae 01 00       	push   $0x1ae27
   1252b:	e8 cd 22 00 00       	call   147fd <pcb_queue_dump>
   12530:	83 c4 10             	add    $0x10,%esp
	pcb_queue_dump( "I", sioread, true );
   12533:	a1 04 20 02 00       	mov    0x22004,%eax
   12538:	83 ec 04             	sub    $0x4,%esp
   1253b:	6a 01                	push   $0x1
   1253d:	50                   	push   %eax
   1253e:	68 29 ae 01 00       	push   $0x1ae29
   12543:	e8 b5 22 00 00       	call   147fd <pcb_queue_dump>
   12548:	83 c4 10             	add    $0x10,%esp
	__asm__ __volatile__( "movl %%ebp,%0" : "=r" (val) );
   1254b:	89 e8                	mov    %ebp,%eax
   1254d:	89 45 f4             	mov    %eax,-0xc(%ebp)
	return val;
   12550:	8b 45 f4             	mov    -0xc(%ebp),%eax

	// perform a stack backtrace
	backtrace( (uint32_t *) r_ebp(), 3 );
   12553:	83 ec 08             	sub    $0x8,%esp
   12556:	6a 03                	push   $0x3
   12558:	50                   	push   %eax
   12559:	e8 5b fe ff ff       	call   123b9 <backtrace>
   1255e:	83 c4 10             	add    $0x10,%esp

	// could dump other stuff here, too

	panic( "KERNEL PANIC" );
   12561:	83 ec 0c             	sub    $0xc,%esp
   12564:	68 2b ae 01 00       	push   $0x1ae2b
   12569:	e8 d9 31 00 00       	call   15747 <panic>
   1256e:	83 c4 10             	add    $0x10,%esp
}
   12571:	90                   	nop
   12572:	c9                   	leave  
   12573:	c3                   	ret    

00012574 <memclr>:
** Initialize all bytes of a block of memory to zero
**
** @param buf    The buffer to initialize
** @param len    Buffer size (in bytes)
*/
void memclr( void *buf, register uint32_t len ) {
   12574:	55                   	push   %ebp
   12575:	89 e5                	mov    %esp,%ebp
   12577:	53                   	push   %ebx
   12578:	8b 55 0c             	mov    0xc(%ebp),%edx
	register uint8_t *dest = buf;
   1257b:	8b 5d 08             	mov    0x8(%ebp),%ebx
	/*
	** We could speed this up by unrolling it and clearing
	** words at a time (instead of bytes).
	*/

	while( len-- ) {
   1257e:	eb 08                	jmp    12588 <memclr+0x14>
			*dest++ = 0;
   12580:	89 d8                	mov    %ebx,%eax
   12582:	8d 58 01             	lea    0x1(%eax),%ebx
   12585:	c6 00 00             	movb   $0x0,(%eax)
	while( len-- ) {
   12588:	89 d0                	mov    %edx,%eax
   1258a:	8d 50 ff             	lea    -0x1(%eax),%edx
   1258d:	85 c0                	test   %eax,%eax
   1258f:	75 ef                	jne    12580 <memclr+0xc>
	}
}
   12591:	90                   	nop
   12592:	5b                   	pop    %ebx
   12593:	5d                   	pop    %ebp
   12594:	c3                   	ret    

00012595 <memcpy>:
**
** @param dst   Destination buffer
** @param src   Source buffer
** @param len   Buffer size (in bytes)
*/
void memcpy( void *dst, register const void *src, register uint32_t len ) {
   12595:	55                   	push   %ebp
   12596:	89 e5                	mov    %esp,%ebp
   12598:	56                   	push   %esi
   12599:	53                   	push   %ebx
   1259a:	8b 4d 10             	mov    0x10(%ebp),%ecx
	register uint8_t *dest = dst;
   1259d:	8b 5d 08             	mov    0x8(%ebp),%ebx
	register const uint8_t *source = src;
   125a0:	8b 75 0c             	mov    0xc(%ebp),%esi
	/*
	** We could speed this up by unrolling it and copying
	** words at a time (instead of bytes).
	*/

	while( len-- ) {
   125a3:	eb 0f                	jmp    125b4 <memcpy+0x1f>
		*dest++ = *source++;
   125a5:	89 f2                	mov    %esi,%edx
   125a7:	8d 72 01             	lea    0x1(%edx),%esi
   125aa:	89 d8                	mov    %ebx,%eax
   125ac:	8d 58 01             	lea    0x1(%eax),%ebx
   125af:	0f b6 12             	movzbl (%edx),%edx
   125b2:	88 10                	mov    %dl,(%eax)
	while( len-- ) {
   125b4:	89 c8                	mov    %ecx,%eax
   125b6:	8d 48 ff             	lea    -0x1(%eax),%ecx
   125b9:	85 c0                	test   %eax,%eax
   125bb:	75 e8                	jne    125a5 <memcpy+0x10>
	}
}
   125bd:	90                   	nop
   125be:	5b                   	pop    %ebx
   125bf:	5e                   	pop    %esi
   125c0:	5d                   	pop    %ebp
   125c1:	c3                   	ret    

000125c2 <memmove>:
**
** @param dst   Destination buffer
** @param src   Source buffer
** @param len   Buffer size (in bytes)
*/
void memmove( void *dst, const void *src, register uint32_t len ) {
   125c2:	55                   	push   %ebp
   125c3:	89 e5                	mov    %esp,%ebp
   125c5:	56                   	push   %esi
   125c6:	53                   	push   %ebx
   125c7:	8b 45 10             	mov    0x10(%ebp),%eax
	register uint8_t *dest = dst;
   125ca:	8b 75 08             	mov    0x8(%ebp),%esi
	register const uint8_t *source = src;
   125cd:	8b 5d 0c             	mov    0xc(%ebp),%ebx
	/*
	** We could speed this up by unrolling it and copying
	** words at a time (instead of bytes).
	*/

	if( source < dest && (source + len) > dest ) {
   125d0:	39 f3                	cmp    %esi,%ebx
   125d2:	73 32                	jae    12606 <memmove+0x44>
   125d4:	8d 14 03             	lea    (%ebx,%eax,1),%edx
   125d7:	39 d6                	cmp    %edx,%esi
   125d9:	73 2b                	jae    12606 <memmove+0x44>
		source += len;
   125db:	01 c3                	add    %eax,%ebx
		dest += len;
   125dd:	01 c6                	add    %eax,%esi
		while( len-- > 0 ) {
   125df:	eb 0b                	jmp    125ec <memmove+0x2a>
			*--dest = *--source;
   125e1:	83 eb 01             	sub    $0x1,%ebx
   125e4:	83 ee 01             	sub    $0x1,%esi
   125e7:	0f b6 13             	movzbl (%ebx),%edx
   125ea:	88 16                	mov    %dl,(%esi)
		while( len-- > 0 ) {
   125ec:	89 c2                	mov    %eax,%edx
   125ee:	8d 42 ff             	lea    -0x1(%edx),%eax
   125f1:	85 d2                	test   %edx,%edx
   125f3:	75 ec                	jne    125e1 <memmove+0x1f>
	if( source < dest && (source + len) > dest ) {
   125f5:	eb 18                	jmp    1260f <memmove+0x4d>
		}
	} else {
		while( len-- ) {
			*dest++ = *source++;
   125f7:	89 d9                	mov    %ebx,%ecx
   125f9:	8d 59 01             	lea    0x1(%ecx),%ebx
   125fc:	89 f2                	mov    %esi,%edx
   125fe:	8d 72 01             	lea    0x1(%edx),%esi
   12601:	0f b6 09             	movzbl (%ecx),%ecx
   12604:	88 0a                	mov    %cl,(%edx)
		while( len-- ) {
   12606:	89 c2                	mov    %eax,%edx
   12608:	8d 42 ff             	lea    -0x1(%edx),%eax
   1260b:	85 d2                	test   %edx,%edx
   1260d:	75 e8                	jne    125f7 <memmove+0x35>
		}
	}
}
   1260f:	90                   	nop
   12610:	5b                   	pop    %ebx
   12611:	5e                   	pop    %esi
   12612:	5d                   	pop    %ebp
   12613:	c3                   	ret    

00012614 <memset>:
**
** @param buf    The buffer to initialize
** @param len    Buffer size (in bytes)
** @param value  Initialization value
*/
void memset( void *buf, register uint32_t len, register uint32_t value ) {
   12614:	55                   	push   %ebp
   12615:	89 e5                	mov    %esp,%ebp
   12617:	53                   	push   %ebx
   12618:	8b 4d 0c             	mov    0xc(%ebp),%ecx
	register uint8_t *bp = buf;
   1261b:	8b 5d 08             	mov    0x8(%ebp),%ebx
	/*
	** We could speed this up by unrolling it and copying
	** words at a time (instead of bytes).
	*/

	while( len-- ) {
   1261e:	eb 0b                	jmp    1262b <memset+0x17>
		*bp++ = value;
   12620:	89 d8                	mov    %ebx,%eax
   12622:	8d 58 01             	lea    0x1(%eax),%ebx
   12625:	0f b6 55 10          	movzbl 0x10(%ebp),%edx
   12629:	88 10                	mov    %dl,(%eax)
	while( len-- ) {
   1262b:	89 c8                	mov    %ecx,%eax
   1262d:	8d 48 ff             	lea    -0x1(%eax),%ecx
   12630:	85 c0                	test   %eax,%eax
   12632:	75 ec                	jne    12620 <memset+0xc>
	}
}
   12634:	90                   	nop
   12635:	5b                   	pop    %ebx
   12636:	5d                   	pop    %ebp
   12637:	c3                   	ret    

00012638 <pad>:
**
** @return Pointer to the first byte after the padding
**
** NOTE: does NOT NUL-terminate the buffer
*/
char *pad( char *dst, int extra, int padchar ) {
   12638:	55                   	push   %ebp
   12639:	89 e5                	mov    %esp,%ebp
	while( extra > 0 ){
   1263b:	eb 12                	jmp    1264f <pad+0x17>
		*dst++ = (char) padchar;
   1263d:	8b 45 08             	mov    0x8(%ebp),%eax
   12640:	8d 50 01             	lea    0x1(%eax),%edx
   12643:	89 55 08             	mov    %edx,0x8(%ebp)
   12646:	8b 55 10             	mov    0x10(%ebp),%edx
   12649:	88 10                	mov    %dl,(%eax)
		extra -= 1;
   1264b:	83 6d 0c 01          	subl   $0x1,0xc(%ebp)
	while( extra > 0 ){
   1264f:	83 7d 0c 00          	cmpl   $0x0,0xc(%ebp)
   12653:	7f e8                	jg     1263d <pad+0x5>
	}
	return dst;
   12655:	8b 45 08             	mov    0x8(%ebp),%eax
}
   12658:	5d                   	pop    %ebp
   12659:	c3                   	ret    

0001265a <padstr>:
** @return Pointer to the first byte after the padded string
**
** NOTE: does NOT NUL-terminate the buffer
*/
char *padstr( char *dst, char *str, int len, int width,
				int leftadjust, int padchar ) {
   1265a:	55                   	push   %ebp
   1265b:	89 e5                	mov    %esp,%ebp
   1265d:	83 ec 18             	sub    $0x18,%esp
	int extra;

	// determine the length of the string if we need to
	if( len < 0 ){
   12660:	83 7d 10 00          	cmpl   $0x0,0x10(%ebp)
   12664:	79 11                	jns    12677 <padstr+0x1d>
		len = strlen( str );
   12666:	83 ec 0c             	sub    $0xc,%esp
   12669:	ff 75 0c             	pushl  0xc(%ebp)
   1266c:	e8 03 04 00 00       	call   12a74 <strlen>
   12671:	83 c4 10             	add    $0x10,%esp
   12674:	89 45 10             	mov    %eax,0x10(%ebp)
	}

	// how much filler must we add?
	extra = width - len;
   12677:	8b 45 14             	mov    0x14(%ebp),%eax
   1267a:	2b 45 10             	sub    0x10(%ebp),%eax
   1267d:	89 45 f0             	mov    %eax,-0x10(%ebp)

	// add filler on the left if we're not left-justifying
	if( extra > 0 && !leftadjust ){
   12680:	83 7d f0 00          	cmpl   $0x0,-0x10(%ebp)
   12684:	7e 1d                	jle    126a3 <padstr+0x49>
   12686:	83 7d 18 00          	cmpl   $0x0,0x18(%ebp)
   1268a:	75 17                	jne    126a3 <padstr+0x49>
		dst = pad( dst, extra, padchar );
   1268c:	83 ec 04             	sub    $0x4,%esp
   1268f:	ff 75 1c             	pushl  0x1c(%ebp)
   12692:	ff 75 f0             	pushl  -0x10(%ebp)
   12695:	ff 75 08             	pushl  0x8(%ebp)
   12698:	e8 9b ff ff ff       	call   12638 <pad>
   1269d:	83 c4 10             	add    $0x10,%esp
   126a0:	89 45 08             	mov    %eax,0x8(%ebp)
	}

	// copy the string itself
	for( int i = 0; i < len; ++i ) {
   126a3:	c7 45 f4 00 00 00 00 	movl   $0x0,-0xc(%ebp)
   126aa:	eb 1b                	jmp    126c7 <padstr+0x6d>
		*dst++ = str[i];
   126ac:	8b 55 f4             	mov    -0xc(%ebp),%edx
   126af:	8b 45 0c             	mov    0xc(%ebp),%eax
   126b2:	8d 0c 02             	lea    (%edx,%eax,1),%ecx
   126b5:	8b 45 08             	mov    0x8(%ebp),%eax
   126b8:	8d 50 01             	lea    0x1(%eax),%edx
   126bb:	89 55 08             	mov    %edx,0x8(%ebp)
   126be:	0f b6 11             	movzbl (%ecx),%edx
   126c1:	88 10                	mov    %dl,(%eax)
	for( int i = 0; i < len; ++i ) {
   126c3:	83 45 f4 01          	addl   $0x1,-0xc(%ebp)
   126c7:	8b 45 f4             	mov    -0xc(%ebp),%eax
   126ca:	3b 45 10             	cmp    0x10(%ebp),%eax
   126cd:	7c dd                	jl     126ac <padstr+0x52>
	}

	// add filler on the right if we are left-justifying
	if( extra > 0 && leftadjust ){
   126cf:	83 7d f0 00          	cmpl   $0x0,-0x10(%ebp)
   126d3:	7e 1d                	jle    126f2 <padstr+0x98>
   126d5:	83 7d 18 00          	cmpl   $0x0,0x18(%ebp)
   126d9:	74 17                	je     126f2 <padstr+0x98>
		dst = pad( dst, extra, padchar );
   126db:	83 ec 04             	sub    $0x4,%esp
   126de:	ff 75 1c             	pushl  0x1c(%ebp)
   126e1:	ff 75 f0             	pushl  -0x10(%ebp)
   126e4:	ff 75 08             	pushl  0x8(%ebp)
   126e7:	e8 4c ff ff ff       	call   12638 <pad>
   126ec:	83 c4 10             	add    $0x10,%esp
   126ef:	89 45 08             	mov    %eax,0x8(%ebp)
	}

	return dst;
   126f2:	8b 45 08             	mov    0x8(%ebp),%eax
}
   126f5:	c9                   	leave  
   126f6:	c3                   	ret    

000126f7 <sprint>:
**
** NOTE:  relies heavily on the x86 parameter passing convention
** (parameters are pushed onto the stack in reverse order as
** 32-bit values).
*/
void sprint( char *dst, char *fmt, ... ) {
   126f7:	55                   	push   %ebp
   126f8:	89 e5                	mov    %esp,%ebp
   126fa:	83 ec 38             	sub    $0x38,%esp
	** to point to the next "thing", and interpret it according
	** to the format string.
	*/
	
	// get the pointer to the first "value" parameter
	ap = (int *)(&fmt) + 1;
   126fd:	8d 45 0c             	lea    0xc(%ebp),%eax
   12700:	83 c0 04             	add    $0x4,%eax
   12703:	89 45 f4             	mov    %eax,-0xc(%ebp)

	// iterate through the format string
	while( (ch = *fmt++) != '\0' ){
   12706:	e9 3f 02 00 00       	jmp    1294a <sprint+0x253>
		/*
		** Is it the start of a format code?
		*/
		if( ch == '%' ){
   1270b:	80 7d f3 25          	cmpb   $0x25,-0xd(%ebp)
   1270f:	0f 85 26 02 00 00    	jne    1293b <sprint+0x244>
			/*
			** Yes, get the padding and width options (if there).
			** Alignment must come at the beginning, then fill,
			** then width.
			*/
			leftadjust = 0;
   12715:	c7 45 ec 00 00 00 00 	movl   $0x0,-0x14(%ebp)
			padchar = ' ';
   1271c:	c7 45 e4 20 00 00 00 	movl   $0x20,-0x1c(%ebp)
			width = 0;
   12723:	c7 45 e8 00 00 00 00 	movl   $0x0,-0x18(%ebp)
			ch = *fmt++;
   1272a:	8b 45 0c             	mov    0xc(%ebp),%eax
   1272d:	8d 50 01             	lea    0x1(%eax),%edx
   12730:	89 55 0c             	mov    %edx,0xc(%ebp)
   12733:	0f b6 00             	movzbl (%eax),%eax
   12736:	88 45 f3             	mov    %al,-0xd(%ebp)
			if( ch == '-' ){
   12739:	80 7d f3 2d          	cmpb   $0x2d,-0xd(%ebp)
   1273d:	75 16                	jne    12755 <sprint+0x5e>
				leftadjust = 1;
   1273f:	c7 45 ec 01 00 00 00 	movl   $0x1,-0x14(%ebp)
				ch = *fmt++;
   12746:	8b 45 0c             	mov    0xc(%ebp),%eax
   12749:	8d 50 01             	lea    0x1(%eax),%edx
   1274c:	89 55 0c             	mov    %edx,0xc(%ebp)
   1274f:	0f b6 00             	movzbl (%eax),%eax
   12752:	88 45 f3             	mov    %al,-0xd(%ebp)
			}
			if( ch == '0' ){
   12755:	80 7d f3 30          	cmpb   $0x30,-0xd(%ebp)
   12759:	75 40                	jne    1279b <sprint+0xa4>
				padchar = '0';
   1275b:	c7 45 e4 30 00 00 00 	movl   $0x30,-0x1c(%ebp)
				ch = *fmt++;
   12762:	8b 45 0c             	mov    0xc(%ebp),%eax
   12765:	8d 50 01             	lea    0x1(%eax),%edx
   12768:	89 55 0c             	mov    %edx,0xc(%ebp)
   1276b:	0f b6 00             	movzbl (%eax),%eax
   1276e:	88 45 f3             	mov    %al,-0xd(%ebp)
			}
			while( ch >= '0' && ch <= '9' ){
   12771:	eb 28                	jmp    1279b <sprint+0xa4>
				width *= 10;
   12773:	8b 55 e8             	mov    -0x18(%ebp),%edx
   12776:	89 d0                	mov    %edx,%eax
   12778:	c1 e0 02             	shl    $0x2,%eax
   1277b:	01 d0                	add    %edx,%eax
   1277d:	01 c0                	add    %eax,%eax
   1277f:	89 45 e8             	mov    %eax,-0x18(%ebp)
				width += ch - '0';
   12782:	0f be 45 f3          	movsbl -0xd(%ebp),%eax
   12786:	83 e8 30             	sub    $0x30,%eax
   12789:	01 45 e8             	add    %eax,-0x18(%ebp)
				ch = *fmt++;
   1278c:	8b 45 0c             	mov    0xc(%ebp),%eax
   1278f:	8d 50 01             	lea    0x1(%eax),%edx
   12792:	89 55 0c             	mov    %edx,0xc(%ebp)
   12795:	0f b6 00             	movzbl (%eax),%eax
   12798:	88 45 f3             	mov    %al,-0xd(%ebp)
			while( ch >= '0' && ch <= '9' ){
   1279b:	80 7d f3 2f          	cmpb   $0x2f,-0xd(%ebp)
   1279f:	7e 06                	jle    127a7 <sprint+0xb0>
   127a1:	80 7d f3 39          	cmpb   $0x39,-0xd(%ebp)
   127a5:	7e cc                	jle    12773 <sprint+0x7c>
			}

			/*
			** What data type do we have?
			*/
			switch( ch ) {
   127a7:	0f be 45 f3          	movsbl -0xd(%ebp),%eax
   127ab:	83 e8 63             	sub    $0x63,%eax
   127ae:	83 f8 15             	cmp    $0x15,%eax
   127b1:	0f 87 93 01 00 00    	ja     1294a <sprint+0x253>
   127b7:	8b 04 85 38 ae 01 00 	mov    0x1ae38(,%eax,4),%eax
   127be:	ff e0                	jmp    *%eax

			case 'c':  // characters are passed as 32-bit values
				ch = *ap++;
   127c0:	8b 45 f4             	mov    -0xc(%ebp),%eax
   127c3:	8d 50 04             	lea    0x4(%eax),%edx
   127c6:	89 55 f4             	mov    %edx,-0xc(%ebp)
   127c9:	8b 00                	mov    (%eax),%eax
   127cb:	88 45 f3             	mov    %al,-0xd(%ebp)
				buf[ 0 ] = ch;
   127ce:	0f b6 45 f3          	movzbl -0xd(%ebp),%eax
   127d2:	88 45 d0             	mov    %al,-0x30(%ebp)
				buf[ 1 ] = '\0';
   127d5:	c6 45 d1 00          	movb   $0x0,-0x2f(%ebp)
				dst = padstr( dst, buf, 1, width, leftadjust, padchar );
   127d9:	83 ec 08             	sub    $0x8,%esp
   127dc:	ff 75 e4             	pushl  -0x1c(%ebp)
   127df:	ff 75 ec             	pushl  -0x14(%ebp)
   127e2:	ff 75 e8             	pushl  -0x18(%ebp)
   127e5:	6a 01                	push   $0x1
   127e7:	8d 45 d0             	lea    -0x30(%ebp),%eax
   127ea:	50                   	push   %eax
   127eb:	ff 75 08             	pushl  0x8(%ebp)
   127ee:	e8 67 fe ff ff       	call   1265a <padstr>
   127f3:	83 c4 20             	add    $0x20,%esp
   127f6:	89 45 08             	mov    %eax,0x8(%ebp)
				break;
   127f9:	e9 4c 01 00 00       	jmp    1294a <sprint+0x253>

			case 'd':
				len = cvtdec( buf, *ap++ );
   127fe:	8b 45 f4             	mov    -0xc(%ebp),%eax
   12801:	8d 50 04             	lea    0x4(%eax),%edx
   12804:	89 55 f4             	mov    %edx,-0xc(%ebp)
   12807:	8b 00                	mov    (%eax),%eax
   12809:	83 ec 08             	sub    $0x8,%esp
   1280c:	50                   	push   %eax
   1280d:	8d 45 d0             	lea    -0x30(%ebp),%eax
   12810:	50                   	push   %eax
   12811:	e8 ee f8 ff ff       	call   12104 <cvtdec>
   12816:	83 c4 10             	add    $0x10,%esp
   12819:	89 45 e0             	mov    %eax,-0x20(%ebp)
				dst = padstr( dst, buf, len, width, leftadjust, padchar );
   1281c:	83 ec 08             	sub    $0x8,%esp
   1281f:	ff 75 e4             	pushl  -0x1c(%ebp)
   12822:	ff 75 ec             	pushl  -0x14(%ebp)
   12825:	ff 75 e8             	pushl  -0x18(%ebp)
   12828:	ff 75 e0             	pushl  -0x20(%ebp)
   1282b:	8d 45 d0             	lea    -0x30(%ebp),%eax
   1282e:	50                   	push   %eax
   1282f:	ff 75 08             	pushl  0x8(%ebp)
   12832:	e8 23 fe ff ff       	call   1265a <padstr>
   12837:	83 c4 20             	add    $0x20,%esp
   1283a:	89 45 08             	mov    %eax,0x8(%ebp)
				break;
   1283d:	e9 08 01 00 00       	jmp    1294a <sprint+0x253>

			case 's':
				str = (char *) (*ap++);
   12842:	8b 45 f4             	mov    -0xc(%ebp),%eax
   12845:	8d 50 04             	lea    0x4(%eax),%edx
   12848:	89 55 f4             	mov    %edx,-0xc(%ebp)
   1284b:	8b 00                	mov    (%eax),%eax
   1284d:	89 45 dc             	mov    %eax,-0x24(%ebp)
				dst = padstr( dst, str, -1, width, leftadjust, padchar );
   12850:	83 ec 08             	sub    $0x8,%esp
   12853:	ff 75 e4             	pushl  -0x1c(%ebp)
   12856:	ff 75 ec             	pushl  -0x14(%ebp)
   12859:	ff 75 e8             	pushl  -0x18(%ebp)
   1285c:	6a ff                	push   $0xffffffff
   1285e:	ff 75 dc             	pushl  -0x24(%ebp)
   12861:	ff 75 08             	pushl  0x8(%ebp)
   12864:	e8 f1 fd ff ff       	call   1265a <padstr>
   12869:	83 c4 20             	add    $0x20,%esp
   1286c:	89 45 08             	mov    %eax,0x8(%ebp)
				break;
   1286f:	e9 d6 00 00 00       	jmp    1294a <sprint+0x253>

			case 'x':
				len = cvthex( buf, *ap++ );
   12874:	8b 45 f4             	mov    -0xc(%ebp),%eax
   12877:	8d 50 04             	lea    0x4(%eax),%edx
   1287a:	89 55 f4             	mov    %edx,-0xc(%ebp)
   1287d:	8b 00                	mov    (%eax),%eax
   1287f:	83 ec 08             	sub    $0x8,%esp
   12882:	50                   	push   %eax
   12883:	8d 45 d0             	lea    -0x30(%ebp),%eax
   12886:	50                   	push   %eax
   12887:	e8 48 f9 ff ff       	call   121d4 <cvthex>
   1288c:	83 c4 10             	add    $0x10,%esp
   1288f:	89 45 e0             	mov    %eax,-0x20(%ebp)
				dst = padstr( dst, buf, len, width, leftadjust, padchar );
   12892:	83 ec 08             	sub    $0x8,%esp
   12895:	ff 75 e4             	pushl  -0x1c(%ebp)
   12898:	ff 75 ec             	pushl  -0x14(%ebp)
   1289b:	ff 75 e8             	pushl  -0x18(%ebp)
   1289e:	ff 75 e0             	pushl  -0x20(%ebp)
   128a1:	8d 45 d0             	lea    -0x30(%ebp),%eax
   128a4:	50                   	push   %eax
   128a5:	ff 75 08             	pushl  0x8(%ebp)
   128a8:	e8 ad fd ff ff       	call   1265a <padstr>
   128ad:	83 c4 20             	add    $0x20,%esp
   128b0:	89 45 08             	mov    %eax,0x8(%ebp)
				break;
   128b3:	e9 92 00 00 00       	jmp    1294a <sprint+0x253>

			case 'o':
				len = cvtoct( buf, *ap++ );
   128b8:	8b 45 f4             	mov    -0xc(%ebp),%eax
   128bb:	8d 50 04             	lea    0x4(%eax),%edx
   128be:	89 55 f4             	mov    %edx,-0xc(%ebp)
   128c1:	8b 00                	mov    (%eax),%eax
   128c3:	83 ec 08             	sub    $0x8,%esp
   128c6:	50                   	push   %eax
   128c7:	8d 45 d0             	lea    -0x30(%ebp),%eax
   128ca:	50                   	push   %eax
   128cb:	e8 8e f9 ff ff       	call   1225e <cvtoct>
   128d0:	83 c4 10             	add    $0x10,%esp
   128d3:	89 45 e0             	mov    %eax,-0x20(%ebp)
				dst = padstr( dst, buf, len, width, leftadjust, padchar );
   128d6:	83 ec 08             	sub    $0x8,%esp
   128d9:	ff 75 e4             	pushl  -0x1c(%ebp)
   128dc:	ff 75 ec             	pushl  -0x14(%ebp)
   128df:	ff 75 e8             	pushl  -0x18(%ebp)
   128e2:	ff 75 e0             	pushl  -0x20(%ebp)
   128e5:	8d 45 d0             	lea    -0x30(%ebp),%eax
   128e8:	50                   	push   %eax
   128e9:	ff 75 08             	pushl  0x8(%ebp)
   128ec:	e8 69 fd ff ff       	call   1265a <padstr>
   128f1:	83 c4 20             	add    $0x20,%esp
   128f4:	89 45 08             	mov    %eax,0x8(%ebp)
				break;
   128f7:	eb 51                	jmp    1294a <sprint+0x253>

			case 'u':
				len = cvtuns( buf, *ap++ );
   128f9:	8b 45 f4             	mov    -0xc(%ebp),%eax
   128fc:	8d 50 04             	lea    0x4(%eax),%edx
   128ff:	89 55 f4             	mov    %edx,-0xc(%ebp)
   12902:	8b 00                	mov    (%eax),%eax
   12904:	83 ec 08             	sub    $0x8,%esp
   12907:	50                   	push   %eax
   12908:	8d 45 d0             	lea    -0x30(%ebp),%eax
   1290b:	50                   	push   %eax
   1290c:	e8 d7 f9 ff ff       	call   122e8 <cvtuns>
   12911:	83 c4 10             	add    $0x10,%esp
   12914:	89 45 e0             	mov    %eax,-0x20(%ebp)
				dst = padstr( dst, buf, len, width, leftadjust, padchar );
   12917:	83 ec 08             	sub    $0x8,%esp
   1291a:	ff 75 e4             	pushl  -0x1c(%ebp)
   1291d:	ff 75 ec             	pushl  -0x14(%ebp)
   12920:	ff 75 e8             	pushl  -0x18(%ebp)
   12923:	ff 75 e0             	pushl  -0x20(%ebp)
   12926:	8d 45 d0             	lea    -0x30(%ebp),%eax
   12929:	50                   	push   %eax
   1292a:	ff 75 08             	pushl  0x8(%ebp)
   1292d:	e8 28 fd ff ff       	call   1265a <padstr>
   12932:	83 c4 20             	add    $0x20,%esp
   12935:	89 45 08             	mov    %eax,0x8(%ebp)
				break;
   12938:	90                   	nop
   12939:	eb 0f                	jmp    1294a <sprint+0x253>

			}
		} else {
			// no, it's just an ordinary character
			*dst++ = ch;
   1293b:	8b 45 08             	mov    0x8(%ebp),%eax
   1293e:	8d 50 01             	lea    0x1(%eax),%edx
   12941:	89 55 08             	mov    %edx,0x8(%ebp)
   12944:	0f b6 55 f3          	movzbl -0xd(%ebp),%edx
   12948:	88 10                	mov    %dl,(%eax)
	while( (ch = *fmt++) != '\0' ){
   1294a:	8b 45 0c             	mov    0xc(%ebp),%eax
   1294d:	8d 50 01             	lea    0x1(%eax),%edx
   12950:	89 55 0c             	mov    %edx,0xc(%ebp)
   12953:	0f b6 00             	movzbl (%eax),%eax
   12956:	88 45 f3             	mov    %al,-0xd(%ebp)
   12959:	80 7d f3 00          	cmpb   $0x0,-0xd(%ebp)
   1295d:	0f 85 a8 fd ff ff    	jne    1270b <sprint+0x14>
		}
	}

	// NUL-terminate the result
	*dst = '\0';
   12963:	8b 45 08             	mov    0x8(%ebp),%eax
   12966:	c6 00 00             	movb   $0x0,(%eax)
}
   12969:	90                   	nop
   1296a:	c9                   	leave  
   1296b:	c3                   	ret    

0001296c <str2int>:
** @param str   The string to examine
** @param base  The radix to use in the conversion
**
** @return The converted integer
*/
int str2int( register const char *str, register int base ) {
   1296c:	55                   	push   %ebp
   1296d:	89 e5                	mov    %esp,%ebp
   1296f:	53                   	push   %ebx
   12970:	83 ec 14             	sub    $0x14,%esp
   12973:	8b 45 08             	mov    0x8(%ebp),%eax
   12976:	8b 4d 0c             	mov    0xc(%ebp),%ecx
	register int num = 0;
   12979:	bb 00 00 00 00       	mov    $0x0,%ebx
	register char bchar = '9';
   1297e:	c6 45 eb 39          	movb   $0x39,-0x15(%ebp)
	int sign = 1;
   12982:	c7 45 f8 01 00 00 00 	movl   $0x1,-0x8(%ebp)

	// check for leading '-'
	if( *str == '-' ) {
   12989:	0f b6 10             	movzbl (%eax),%edx
   1298c:	80 fa 2d             	cmp    $0x2d,%dl
   1298f:	75 0a                	jne    1299b <str2int+0x2f>
		sign = -1;
   12991:	c7 45 f8 ff ff ff ff 	movl   $0xffffffff,-0x8(%ebp)
		++str;
   12998:	83 c0 01             	add    $0x1,%eax
	}

	if( base != 10 ) {
   1299b:	83 f9 0a             	cmp    $0xa,%ecx
   1299e:	74 2b                	je     129cb <str2int+0x5f>
		bchar = '0' + base - 1;
   129a0:	89 ca                	mov    %ecx,%edx
   129a2:	83 c2 2f             	add    $0x2f,%edx
   129a5:	88 55 eb             	mov    %dl,-0x15(%ebp)
	}

	// iterate through the characters
	while( *str ) {
   129a8:	eb 21                	jmp    129cb <str2int+0x5f>
		if( *str < '0' || *str > bchar )
   129aa:	0f b6 10             	movzbl (%eax),%edx
   129ad:	80 fa 2f             	cmp    $0x2f,%dl
   129b0:	7e 20                	jle    129d2 <str2int+0x66>
   129b2:	0f b6 10             	movzbl (%eax),%edx
   129b5:	38 55 eb             	cmp    %dl,-0x15(%ebp)
   129b8:	7c 18                	jl     129d2 <str2int+0x66>
			break;
		num = num * base + *str - '0';
   129ba:	0f af d9             	imul   %ecx,%ebx
   129bd:	0f b6 10             	movzbl (%eax),%edx
   129c0:	0f be d2             	movsbl %dl,%edx
   129c3:	01 da                	add    %ebx,%edx
   129c5:	8d 5a d0             	lea    -0x30(%edx),%ebx
		++str;
   129c8:	83 c0 01             	add    $0x1,%eax
	while( *str ) {
   129cb:	0f b6 10             	movzbl (%eax),%edx
   129ce:	84 d2                	test   %dl,%dl
   129d0:	75 d8                	jne    129aa <str2int+0x3e>
	}

	// return the converted value
	return( num * sign );
   129d2:	89 d8                	mov    %ebx,%eax
   129d4:	0f af 45 f8          	imul   -0x8(%ebp),%eax
}
   129d8:	83 c4 14             	add    $0x14,%esp
   129db:	5b                   	pop    %ebx
   129dc:	5d                   	pop    %ebp
   129dd:	c3                   	ret    

000129de <strcat>:
**
** @return The dst parameter
**
** NOTE:  assumes dst is large enough to hold the resulting string
*/
char *strcat( register char *dst, register const char *src ) {
   129de:	55                   	push   %ebp
   129df:	89 e5                	mov    %esp,%ebp
   129e1:	56                   	push   %esi
   129e2:	53                   	push   %ebx
   129e3:	8b 45 08             	mov    0x8(%ebp),%eax
   129e6:	8b 75 0c             	mov    0xc(%ebp),%esi
	register char *tmp = dst;
   129e9:	89 c3                	mov    %eax,%ebx

	while( *dst )  // find the NUL
   129eb:	eb 03                	jmp    129f0 <strcat+0x12>
		++dst;
   129ed:	83 c0 01             	add    $0x1,%eax
	while( *dst )  // find the NUL
   129f0:	0f b6 10             	movzbl (%eax),%edx
   129f3:	84 d2                	test   %dl,%dl
   129f5:	75 f6                	jne    129ed <strcat+0xf>

	while( (*dst++ = *src++) )  // append the src string
   129f7:	90                   	nop
   129f8:	89 f1                	mov    %esi,%ecx
   129fa:	8d 71 01             	lea    0x1(%ecx),%esi
   129fd:	89 c2                	mov    %eax,%edx
   129ff:	8d 42 01             	lea    0x1(%edx),%eax
   12a02:	0f b6 09             	movzbl (%ecx),%ecx
   12a05:	88 0a                	mov    %cl,(%edx)
   12a07:	0f b6 12             	movzbl (%edx),%edx
   12a0a:	84 d2                	test   %dl,%dl
   12a0c:	75 ea                	jne    129f8 <strcat+0x1a>
		;

	return( tmp );
   12a0e:	89 d8                	mov    %ebx,%eax
}
   12a10:	5b                   	pop    %ebx
   12a11:	5e                   	pop    %esi
   12a12:	5d                   	pop    %ebp
   12a13:	c3                   	ret    

00012a14 <strcmp>:
** @param s1 The first source string
** @param s2 The second source string
**
** @return negative if s1 < s2, zero if equal, and positive if s1 > s2
*/
int strcmp( register const char *s1, register const char *s2 ) {
   12a14:	55                   	push   %ebp
   12a15:	89 e5                	mov    %esp,%ebp
   12a17:	53                   	push   %ebx
   12a18:	8b 45 08             	mov    0x8(%ebp),%eax
   12a1b:	8b 55 0c             	mov    0xc(%ebp),%edx

	while( *s1 != 0 && (*s1 == *s2) )
   12a1e:	eb 06                	jmp    12a26 <strcmp+0x12>
		++s1, ++s2;
   12a20:	83 c0 01             	add    $0x1,%eax
   12a23:	83 c2 01             	add    $0x1,%edx
	while( *s1 != 0 && (*s1 == *s2) )
   12a26:	0f b6 08             	movzbl (%eax),%ecx
   12a29:	84 c9                	test   %cl,%cl
   12a2b:	74 0a                	je     12a37 <strcmp+0x23>
   12a2d:	0f b6 18             	movzbl (%eax),%ebx
   12a30:	0f b6 0a             	movzbl (%edx),%ecx
   12a33:	38 cb                	cmp    %cl,%bl
   12a35:	74 e9                	je     12a20 <strcmp+0xc>

	return( *s1 - *s2 );
   12a37:	0f b6 00             	movzbl (%eax),%eax
   12a3a:	0f be c8             	movsbl %al,%ecx
   12a3d:	0f b6 02             	movzbl (%edx),%eax
   12a40:	0f be c0             	movsbl %al,%eax
   12a43:	29 c1                	sub    %eax,%ecx
   12a45:	89 c8                	mov    %ecx,%eax
}
   12a47:	5b                   	pop    %ebx
   12a48:	5d                   	pop    %ebp
   12a49:	c3                   	ret    

00012a4a <strcpy>:
**
** @return The dst parameter
**
** NOTE:  assumes dst is large enough to hold the copied string
*/
char *strcpy( register char *dst, register const char *src ) {
   12a4a:	55                   	push   %ebp
   12a4b:	89 e5                	mov    %esp,%ebp
   12a4d:	56                   	push   %esi
   12a4e:	53                   	push   %ebx
   12a4f:	8b 4d 08             	mov    0x8(%ebp),%ecx
   12a52:	8b 75 0c             	mov    0xc(%ebp),%esi
	register char *tmp = dst;
   12a55:	89 cb                	mov    %ecx,%ebx

	while( (*dst++ = *src++) )
   12a57:	90                   	nop
   12a58:	89 f2                	mov    %esi,%edx
   12a5a:	8d 72 01             	lea    0x1(%edx),%esi
   12a5d:	89 c8                	mov    %ecx,%eax
   12a5f:	8d 48 01             	lea    0x1(%eax),%ecx
   12a62:	0f b6 12             	movzbl (%edx),%edx
   12a65:	88 10                	mov    %dl,(%eax)
   12a67:	0f b6 00             	movzbl (%eax),%eax
   12a6a:	84 c0                	test   %al,%al
   12a6c:	75 ea                	jne    12a58 <strcpy+0xe>
		;

	return( tmp );
   12a6e:	89 d8                	mov    %ebx,%eax
}
   12a70:	5b                   	pop    %ebx
   12a71:	5e                   	pop    %esi
   12a72:	5d                   	pop    %ebp
   12a73:	c3                   	ret    

00012a74 <strlen>:
**
** @param str The string to examine
**
** @return The length of the string, or 0
*/
uint32_t strlen( register const char *str ) {
   12a74:	55                   	push   %ebp
   12a75:	89 e5                	mov    %esp,%ebp
   12a77:	53                   	push   %ebx
   12a78:	8b 55 08             	mov    0x8(%ebp),%edx
	register uint32_t len = 0;
   12a7b:	bb 00 00 00 00       	mov    $0x0,%ebx

	while( *str++ ) {
   12a80:	eb 03                	jmp    12a85 <strlen+0x11>
		++len;
   12a82:	83 c3 01             	add    $0x1,%ebx
	while( *str++ ) {
   12a85:	89 d0                	mov    %edx,%eax
   12a87:	8d 50 01             	lea    0x1(%eax),%edx
   12a8a:	0f b6 00             	movzbl (%eax),%eax
   12a8d:	84 c0                	test   %al,%al
   12a8f:	75 f1                	jne    12a82 <strlen+0xe>
	}

	return( len );
   12a91:	89 d8                	mov    %ebx,%eax
}
   12a93:	5b                   	pop    %ebx
   12a94:	5d                   	pop    %ebp
   12a95:	c3                   	ret    

00012a96 <add_block>:
** Add a block to the free list
**
** @param base   Base address of the block
** @param length Block length, in bytes
*/
static void add_block( uint32_t base, uint32_t length ) {
   12a96:	55                   	push   %ebp
   12a97:	89 e5                	mov    %esp,%ebp
   12a99:	83 ec 18             	sub    $0x18,%esp

	// don't add it if it isn't at least 4K
	if( length < SZ_PAGE ) {
   12a9c:	81 7d 0c ff 0f 00 00 	cmpl   $0xfff,0xc(%ebp)
   12aa3:	0f 86 f4 00 00 00    	jbe    12b9d <add_block+0x107>
#if ANY_KMEM
	cio_printf( "  add(%08x,%08x): ", base, length );
#endif

	// only want to add multiples of 4K; check the lower bits
	if( (length & 0xfff) != 0 ) {
   12aa9:	8b 45 0c             	mov    0xc(%ebp),%eax
   12aac:	25 ff 0f 00 00       	and    $0xfff,%eax
   12ab1:	85 c0                	test   %eax,%eax
   12ab3:	74 07                	je     12abc <add_block+0x26>
		// round it down to 4K
		length &= 0xfffff000;
   12ab5:	81 65 0c 00 f0 ff ff 	andl   $0xfffff000,0xc(%ebp)
	cio_printf( " --> base %08x length %08x", base, length );
#endif

	// create the "block"

	Blockinfo *block = (Blockinfo *) base;
   12abc:	8b 45 08             	mov    0x8(%ebp),%eax
   12abf:	89 45 ec             	mov    %eax,-0x14(%ebp)
	block->pages = B2P(length);
   12ac2:	8b 45 0c             	mov    0xc(%ebp),%eax
   12ac5:	c1 e8 0c             	shr    $0xc,%eax
   12ac8:	89 c2                	mov    %eax,%edx
   12aca:	8b 45 ec             	mov    -0x14(%ebp),%eax
   12acd:	89 10                	mov    %edx,(%eax)
	block->next = NULL;
   12acf:	8b 45 ec             	mov    -0x14(%ebp),%eax
   12ad2:	c7 40 04 00 00 00 00 	movl   $0x0,0x4(%eax)
	** coalescing adjacent free blocks.
	**
	** Handle the easiest case first.
	*/

	if( free_pages == NULL ) {
   12ad9:	a1 14 e1 01 00       	mov    0x1e114,%eax
   12ade:	85 c0                	test   %eax,%eax
   12ae0:	75 17                	jne    12af9 <add_block+0x63>
		free_pages = block;
   12ae2:	8b 45 ec             	mov    -0x14(%ebp),%eax
   12ae5:	a3 14 e1 01 00       	mov    %eax,0x1e114
		n_pages = block->pages;
   12aea:	8b 45 ec             	mov    -0x14(%ebp),%eax
   12aed:	8b 00                	mov    (%eax),%eax
   12aef:	a3 1c e1 01 00       	mov    %eax,0x1e11c
		return;
   12af4:	e9 a5 00 00 00       	jmp    12b9e <add_block+0x108>
	** Find the correct insertion spot.
	*/

	Blockinfo *prev, *curr;

	prev = NULL;
   12af9:	c7 45 f4 00 00 00 00 	movl   $0x0,-0xc(%ebp)
	curr = free_pages;
   12b00:	a1 14 e1 01 00       	mov    0x1e114,%eax
   12b05:	89 45 f0             	mov    %eax,-0x10(%ebp)

	while( curr && curr < block ) {
   12b08:	eb 0f                	jmp    12b19 <add_block+0x83>
		prev = curr;
   12b0a:	8b 45 f0             	mov    -0x10(%ebp),%eax
   12b0d:	89 45 f4             	mov    %eax,-0xc(%ebp)
		curr = curr->next;
   12b10:	8b 45 f0             	mov    -0x10(%ebp),%eax
   12b13:	8b 40 04             	mov    0x4(%eax),%eax
   12b16:	89 45 f0             	mov    %eax,-0x10(%ebp)
	while( curr && curr < block ) {
   12b19:	83 7d f0 00          	cmpl   $0x0,-0x10(%ebp)
   12b1d:	74 08                	je     12b27 <add_block+0x91>
   12b1f:	8b 45 f0             	mov    -0x10(%ebp),%eax
   12b22:	3b 45 ec             	cmp    -0x14(%ebp),%eax
   12b25:	72 e3                	jb     12b0a <add_block+0x74>
	}

	// the new block always points to its successor
	block->next = curr;
   12b27:	8b 45 ec             	mov    -0x14(%ebp),%eax
   12b2a:	8b 55 f0             	mov    -0x10(%ebp),%edx
   12b2d:	89 50 04             	mov    %edx,0x4(%eax)
	/*
	** If prev is NULL, we're adding at the front; otherwise,
	** we're adding after some other entry (middle or end).
	*/

	if( prev == NULL ) {
   12b30:	83 7d f4 00          	cmpl   $0x0,-0xc(%ebp)
   12b34:	75 4b                	jne    12b81 <add_block+0xeb>
		// sanity check - both pointers can't be NULL
		assert( curr );
   12b36:	83 7d f0 00          	cmpl   $0x0,-0x10(%ebp)
   12b3a:	75 3b                	jne    12b77 <add_block+0xe1>
   12b3c:	83 ec 04             	sub    $0x4,%esp
   12b3f:	68 90 ae 01 00       	push   $0x1ae90
   12b44:	6a 00                	push   $0x0
   12b46:	68 0d 01 00 00       	push   $0x10d
   12b4b:	68 95 ae 01 00       	push   $0x1ae95
   12b50:	68 8c af 01 00       	push   $0x1af8c
   12b55:	68 9c ae 01 00       	push   $0x1ae9c
   12b5a:	68 00 00 02 00       	push   $0x20000
   12b5f:	e8 93 fb ff ff       	call   126f7 <sprint>
   12b64:	83 c4 20             	add    $0x20,%esp
   12b67:	83 ec 0c             	sub    $0xc,%esp
   12b6a:	68 00 00 02 00       	push   $0x20000
   12b6f:	e8 03 f9 ff ff       	call   12477 <kpanic>
   12b74:	83 c4 10             	add    $0x10,%esp
		// add at the beginning
		free_pages = block;
   12b77:	8b 45 ec             	mov    -0x14(%ebp),%eax
   12b7a:	a3 14 e1 01 00       	mov    %eax,0x1e114
   12b7f:	eb 09                	jmp    12b8a <add_block+0xf4>
	} else {
		// inserting in the middle or at the end
		prev->next = block;
   12b81:	8b 45 f4             	mov    -0xc(%ebp),%eax
   12b84:	8b 55 ec             	mov    -0x14(%ebp),%edx
   12b87:	89 50 04             	mov    %edx,0x4(%eax)
	}

	// bump the count of available pages
	n_pages += block->pages;
   12b8a:	8b 45 ec             	mov    -0x14(%ebp),%eax
   12b8d:	8b 10                	mov    (%eax),%edx
   12b8f:	a1 1c e1 01 00       	mov    0x1e11c,%eax
   12b94:	01 d0                	add    %edx,%eax
   12b96:	a3 1c e1 01 00       	mov    %eax,0x1e11c
   12b9b:	eb 01                	jmp    12b9e <add_block+0x108>
		return;
   12b9d:	90                   	nop
}
   12b9e:	c9                   	leave  
   12b9f:	c3                   	ret    

00012ba0 <km_init>:
**
** Dependencies:
**    Must be called before any other init routine that uses
**    dynamic storage is called.
*/
void km_init( void ) {
   12ba0:	55                   	push   %ebp
   12ba1:	89 e5                	mov    %esp,%ebp
   12ba3:	53                   	push   %ebx
   12ba4:	83 ec 34             	sub    $0x34,%esp
	int32_t entries;
	region_t *region;

#if TRACING_INIT
	// announce that we're starting initialization
	cio_puts( " Kmem" );
   12ba7:	83 ec 0c             	sub    $0xc,%esp
   12baa:	68 b2 ae 01 00       	push   $0x1aeb2
   12baf:	e8 f9 e2 ff ff       	call   10ead <cio_puts>
   12bb4:	83 c4 10             	add    $0x10,%esp
#endif

	// initially, nothing in the free lists
	free_slices = NULL;
   12bb7:	c7 05 18 e1 01 00 00 	movl   $0x0,0x1e118
   12bbe:	00 00 00 
	free_pages = NULL;
   12bc1:	c7 05 14 e1 01 00 00 	movl   $0x0,0x1e114
   12bc8:	00 00 00 
	n_pages = n_slices = 0;
   12bcb:	c7 05 20 e1 01 00 00 	movl   $0x0,0x1e120
   12bd2:	00 00 00 
   12bd5:	a1 20 e1 01 00       	mov    0x1e120,%eax
   12bda:	a3 1c e1 01 00       	mov    %eax,0x1e11c
	km_initialized = 0;
   12bdf:	c7 05 24 e1 01 00 00 	movl   $0x0,0x1e124
   12be6:	00 00 00 

	// get the list length
	entries = *((int32_t *) MMAP_ADDR);
   12be9:	b8 00 2d 00 00       	mov    $0x2d00,%eax
   12bee:	8b 00                	mov    (%eax),%eax
   12bf0:	89 45 dc             	mov    %eax,-0x24(%ebp)
#if KMEM_OR_INIT
	cio_printf( "\nKmem: %d regions\n", entries );
#endif

	// if there are no entries, we have nothing to do!
	if( entries < 1 ) {  // note: entries == -1 could occur!
   12bf3:	83 7d dc 00          	cmpl   $0x0,-0x24(%ebp)
   12bf7:	0f 8e 77 01 00 00    	jle    12d74 <km_init+0x1d4>
		return;
	}

	// iterate through the entries, adding things to the freelist

	region = ((region_t *) (MMAP_ADDR + 4));
   12bfd:	c7 45 f4 04 2d 00 00 	movl   $0x2d04,-0xc(%ebp)

	for( int i = 0; i < entries; ++i, ++region ) {
   12c04:	c7 45 f0 00 00 00 00 	movl   $0x0,-0x10(%ebp)
   12c0b:	e9 4c 01 00 00       	jmp    12d5c <km_init+0x1bc>
		** this to include ACPI "reclaimable" memory.
		*/

		// first, check the ACPI one-bit flags

		if( ((region->acpi) & REGION_IGNORE) == 0 ) {
   12c10:	8b 45 f4             	mov    -0xc(%ebp),%eax
   12c13:	8b 40 14             	mov    0x14(%eax),%eax
   12c16:	83 e0 01             	and    $0x1,%eax
   12c19:	85 c0                	test   %eax,%eax
   12c1b:	0f 84 26 01 00 00    	je     12d47 <km_init+0x1a7>
			cio_puts( " IGN\n" );
#endif
			continue;
		}

		if( ((region->acpi) & REGION_NONVOL) != 0 ) {
   12c21:	8b 45 f4             	mov    -0xc(%ebp),%eax
   12c24:	8b 40 14             	mov    0x14(%eax),%eax
   12c27:	83 e0 02             	and    $0x2,%eax
   12c2a:	85 c0                	test   %eax,%eax
   12c2c:	0f 85 18 01 00 00    	jne    12d4a <km_init+0x1aa>
			continue;  // we'll ignore this, too
		}

		// next, the region type

		if( (region->type) != REGION_USABLE ) {
   12c32:	8b 45 f4             	mov    -0xc(%ebp),%eax
   12c35:	8b 40 10             	mov    0x10(%eax),%eax
   12c38:	83 f8 01             	cmp    $0x1,%eax
   12c3b:	0f 85 0c 01 00 00    	jne    12d4d <km_init+0x1ad>
		** split it, and only use the portion that's within those
		** bounds.
		*/

		// grab the two 64-bit values to simplify things
		uint64_t base   = region->base.all;
   12c41:	8b 45 f4             	mov    -0xc(%ebp),%eax
   12c44:	8b 50 04             	mov    0x4(%eax),%edx
   12c47:	8b 00                	mov    (%eax),%eax
   12c49:	89 45 e8             	mov    %eax,-0x18(%ebp)
   12c4c:	89 55 ec             	mov    %edx,-0x14(%ebp)
		uint64_t length = region->length.all;
   12c4f:	8b 45 f4             	mov    -0xc(%ebp),%eax
   12c52:	8b 50 0c             	mov    0xc(%eax),%edx
   12c55:	8b 40 08             	mov    0x8(%eax),%eax
   12c58:	89 45 d0             	mov    %eax,-0x30(%ebp)
   12c5b:	89 55 d4             	mov    %edx,-0x2c(%ebp)
		uint64_t endpt  = base + length;
   12c5e:	8b 4d e8             	mov    -0x18(%ebp),%ecx
   12c61:	8b 5d ec             	mov    -0x14(%ebp),%ebx
   12c64:	8b 45 d0             	mov    -0x30(%ebp),%eax
   12c67:	8b 55 d4             	mov    -0x2c(%ebp),%edx
   12c6a:	01 c8                	add    %ecx,%eax
   12c6c:	11 da                	adc    %ebx,%edx
   12c6e:	89 45 e0             	mov    %eax,-0x20(%ebp)
   12c71:	89 55 e4             	mov    %edx,-0x1c(%ebp)

		// see if it's above our arbitrary high cutoff point
		if( base >= KM_HIGH_CUTOFF || endpt >= KM_HIGH_CUTOFF ) {
   12c74:	83 7d ec 00          	cmpl   $0x0,-0x14(%ebp)
   12c78:	77 24                	ja     12c9e <km_init+0xfe>
   12c7a:	83 7d ec 00          	cmpl   $0x0,-0x14(%ebp)
   12c7e:	72 09                	jb     12c89 <km_init+0xe9>
   12c80:	81 7d e8 ff ff ff 3f 	cmpl   $0x3fffffff,-0x18(%ebp)
   12c87:	77 15                	ja     12c9e <km_init+0xfe>
   12c89:	83 7d e4 00          	cmpl   $0x0,-0x1c(%ebp)
   12c8d:	72 3a                	jb     12cc9 <km_init+0x129>
   12c8f:	83 7d e4 00          	cmpl   $0x0,-0x1c(%ebp)
   12c93:	77 09                	ja     12c9e <km_init+0xfe>
   12c95:	81 7d e0 ff ff ff 3f 	cmpl   $0x3fffffff,-0x20(%ebp)
   12c9c:	76 2b                	jbe    12cc9 <km_init+0x129>

			// is the whole thing too high, or just part?
			if( base > KM_HIGH_CUTOFF ) {
   12c9e:	83 7d ec 00          	cmpl   $0x0,-0x14(%ebp)
   12ca2:	72 17                	jb     12cbb <km_init+0x11b>
   12ca4:	83 7d ec 00          	cmpl   $0x0,-0x14(%ebp)
   12ca8:	0f 87 a2 00 00 00    	ja     12d50 <km_init+0x1b0>
   12cae:	81 7d e8 00 00 00 40 	cmpl   $0x40000000,-0x18(%ebp)
   12cb5:	0f 87 95 00 00 00    	ja     12d50 <km_init+0x1b0>
#endif
				continue;
			}

			// some of it is usable - fix the end point
			endpt = KM_HIGH_CUTOFF;
   12cbb:	c7 45 e0 00 00 00 40 	movl   $0x40000000,-0x20(%ebp)
   12cc2:	c7 45 e4 00 00 00 00 	movl   $0x0,-0x1c(%ebp)
		}

		// see if it's below our low cutoff point
		if( base < KM_LOW_CUTOFF || endpt < KM_LOW_CUTOFF ) {
   12cc9:	83 7d ec 00          	cmpl   $0x0,-0x14(%ebp)
   12ccd:	72 24                	jb     12cf3 <km_init+0x153>
   12ccf:	83 7d ec 00          	cmpl   $0x0,-0x14(%ebp)
   12cd3:	77 09                	ja     12cde <km_init+0x13e>
   12cd5:	81 7d e8 ff ff 0f 00 	cmpl   $0xfffff,-0x18(%ebp)
   12cdc:	76 15                	jbe    12cf3 <km_init+0x153>
   12cde:	83 7d e4 00          	cmpl   $0x0,-0x1c(%ebp)
   12ce2:	77 32                	ja     12d16 <km_init+0x176>
   12ce4:	83 7d e4 00          	cmpl   $0x0,-0x1c(%ebp)
   12ce8:	72 09                	jb     12cf3 <km_init+0x153>
   12cea:	81 7d e0 ff ff 0f 00 	cmpl   $0xfffff,-0x20(%ebp)
   12cf1:	77 23                	ja     12d16 <km_init+0x176>

			// is the whole thing too low, or just part?
			if( endpt < KM_LOW_CUTOFF ) {
   12cf3:	83 7d e4 00          	cmpl   $0x0,-0x1c(%ebp)
   12cf7:	77 0f                	ja     12d08 <km_init+0x168>
   12cf9:	83 7d e4 00          	cmpl   $0x0,-0x1c(%ebp)
   12cfd:	72 54                	jb     12d53 <km_init+0x1b3>
   12cff:	81 7d e0 ff ff 0f 00 	cmpl   $0xfffff,-0x20(%ebp)
   12d06:	76 4b                	jbe    12d53 <km_init+0x1b3>
#endif
				continue;
			}

			// some of it is usable - fix the starting point
			base = KM_LOW_CUTOFF;
   12d08:	c7 45 e8 00 00 10 00 	movl   $0x100000,-0x18(%ebp)
   12d0f:	c7 45 ec 00 00 00 00 	movl   $0x0,-0x14(%ebp)
		}

		// recalculate the length
		length = endpt - base;
   12d16:	8b 45 e0             	mov    -0x20(%ebp),%eax
   12d19:	8b 55 e4             	mov    -0x1c(%ebp),%edx
   12d1c:	2b 45 e8             	sub    -0x18(%ebp),%eax
   12d1f:	1b 55 ec             	sbb    -0x14(%ebp),%edx
   12d22:	89 45 d0             	mov    %eax,-0x30(%ebp)
   12d25:	89 55 d4             	mov    %edx,-0x2c(%ebp)
		cio_puts( " OK\n" );
#endif

		// we survived the gauntlet - add the new block

		uint32_t b32 = base   & ADDR_LOW_HALF;
   12d28:	8b 45 e8             	mov    -0x18(%ebp),%eax
   12d2b:	89 45 cc             	mov    %eax,-0x34(%ebp)
		uint32_t l32 = length & ADDR_LOW_HALF;
   12d2e:	8b 45 d0             	mov    -0x30(%ebp),%eax
   12d31:	89 45 c8             	mov    %eax,-0x38(%ebp)

		add_block( b32, l32 );
   12d34:	83 ec 08             	sub    $0x8,%esp
   12d37:	ff 75 c8             	pushl  -0x38(%ebp)
   12d3a:	ff 75 cc             	pushl  -0x34(%ebp)
   12d3d:	e8 54 fd ff ff       	call   12a96 <add_block>
   12d42:	83 c4 10             	add    $0x10,%esp
   12d45:	eb 0d                	jmp    12d54 <km_init+0x1b4>
			continue;
   12d47:	90                   	nop
   12d48:	eb 0a                	jmp    12d54 <km_init+0x1b4>
			continue;  // we'll ignore this, too
   12d4a:	90                   	nop
   12d4b:	eb 07                	jmp    12d54 <km_init+0x1b4>
			continue;  // we won't attempt to reclaim ACPI memory (yet)
   12d4d:	90                   	nop
   12d4e:	eb 04                	jmp    12d54 <km_init+0x1b4>
				continue;
   12d50:	90                   	nop
   12d51:	eb 01                	jmp    12d54 <km_init+0x1b4>
				continue;
   12d53:	90                   	nop
	for( int i = 0; i < entries; ++i, ++region ) {
   12d54:	83 45 f0 01          	addl   $0x1,-0x10(%ebp)
   12d58:	83 45 f4 18          	addl   $0x18,-0xc(%ebp)
   12d5c:	8b 45 f0             	mov    -0x10(%ebp),%eax
   12d5f:	3b 45 dc             	cmp    -0x24(%ebp),%eax
   12d62:	0f 8c a8 fe ff ff    	jl     12c10 <km_init+0x70>
	}

	// record the initialization
	km_initialized = 1;
   12d68:	c7 05 24 e1 01 00 01 	movl   $0x1,0x1e124
   12d6f:	00 00 00 
   12d72:	eb 01                	jmp    12d75 <km_init+0x1d5>
		return;
   12d74:	90                   	nop
#if KMEM_OR_INIT
	delay( DELAY_1_SEC );
#endif
}
   12d75:	8b 5d fc             	mov    -0x4(%ebp),%ebx
   12d78:	c9                   	leave  
   12d79:	c3                   	ret    

00012d7a <km_dump>:
/**
** Name:    km_dump
**
** Dump the current contents of the free list to the console
*/
void km_dump( void ) {
   12d7a:	55                   	push   %ebp
   12d7b:	89 e5                	mov    %esp,%ebp
   12d7d:	53                   	push   %ebx
   12d7e:	83 ec 14             	sub    $0x14,%esp
	Blockinfo *block;

	cio_printf( "&free_pages=%08x, &free_slices %08x, %u pages, %u slices\n",
   12d81:	8b 15 20 e1 01 00    	mov    0x1e120,%edx
   12d87:	a1 1c e1 01 00       	mov    0x1e11c,%eax
   12d8c:	bb 18 e1 01 00       	mov    $0x1e118,%ebx
   12d91:	b9 14 e1 01 00       	mov    $0x1e114,%ecx
   12d96:	83 ec 0c             	sub    $0xc,%esp
   12d99:	52                   	push   %edx
   12d9a:	50                   	push   %eax
   12d9b:	53                   	push   %ebx
   12d9c:	51                   	push   %ecx
   12d9d:	68 b8 ae 01 00       	push   $0x1aeb8
   12da2:	e8 80 e7 ff ff       	call   11527 <cio_printf>
   12da7:	83 c4 20             	add    $0x20,%esp
			(uint32_t) &free_pages, (uint32_t) &free_slices,
			n_pages, n_slices );

	for( block = free_pages; block != NULL; block = block->next ) {
   12daa:	a1 14 e1 01 00       	mov    0x1e114,%eax
   12daf:	89 45 f4             	mov    %eax,-0xc(%ebp)
   12db2:	eb 39                	jmp    12ded <km_dump+0x73>
		cio_printf(
   12db4:	8b 45 f4             	mov    -0xc(%ebp),%eax
   12db7:	8b 50 04             	mov    0x4(%eax),%edx
			"block @ 0x%08x 0x%08x pages (ends at 0x%08x) next @ 0x%08x\n",
				block, block->pages, P2B(block->pages) + (uint32_t) block,
   12dba:	8b 45 f4             	mov    -0xc(%ebp),%eax
   12dbd:	8b 00                	mov    (%eax),%eax
   12dbf:	c1 e0 0c             	shl    $0xc,%eax
   12dc2:	89 c1                	mov    %eax,%ecx
   12dc4:	8b 45 f4             	mov    -0xc(%ebp),%eax
		cio_printf(
   12dc7:	01 c1                	add    %eax,%ecx
   12dc9:	8b 45 f4             	mov    -0xc(%ebp),%eax
   12dcc:	8b 00                	mov    (%eax),%eax
   12dce:	83 ec 0c             	sub    $0xc,%esp
   12dd1:	52                   	push   %edx
   12dd2:	51                   	push   %ecx
   12dd3:	50                   	push   %eax
   12dd4:	ff 75 f4             	pushl  -0xc(%ebp)
   12dd7:	68 f4 ae 01 00       	push   $0x1aef4
   12ddc:	e8 46 e7 ff ff       	call   11527 <cio_printf>
   12de1:	83 c4 20             	add    $0x20,%esp
	for( block = free_pages; block != NULL; block = block->next ) {
   12de4:	8b 45 f4             	mov    -0xc(%ebp),%eax
   12de7:	8b 40 04             	mov    0x4(%eax),%eax
   12dea:	89 45 f4             	mov    %eax,-0xc(%ebp)
   12ded:	83 7d f4 00          	cmpl   $0x0,-0xc(%ebp)
   12df1:	75 c1                	jne    12db4 <km_dump+0x3a>
				block->next );
	}

	for( block = free_slices; block != NULL; block = block->next ) {
   12df3:	a1 18 e1 01 00       	mov    0x1e118,%eax
   12df8:	89 45 f4             	mov    %eax,-0xc(%ebp)
   12dfb:	eb 39                	jmp    12e36 <km_dump+0xbc>
		cio_printf(
   12dfd:	8b 45 f4             	mov    -0xc(%ebp),%eax
   12e00:	8b 50 04             	mov    0x4(%eax),%edx
			"block @ 0x%08x 0x%08x slices (ends at 0x%08x) next @ 0x%08x\n",
				block, block->pages, P2B(block->pages) + (uint32_t) block,
   12e03:	8b 45 f4             	mov    -0xc(%ebp),%eax
   12e06:	8b 00                	mov    (%eax),%eax
   12e08:	c1 e0 0c             	shl    $0xc,%eax
   12e0b:	89 c1                	mov    %eax,%ecx
   12e0d:	8b 45 f4             	mov    -0xc(%ebp),%eax
		cio_printf(
   12e10:	01 c1                	add    %eax,%ecx
   12e12:	8b 45 f4             	mov    -0xc(%ebp),%eax
   12e15:	8b 00                	mov    (%eax),%eax
   12e17:	83 ec 0c             	sub    $0xc,%esp
   12e1a:	52                   	push   %edx
   12e1b:	51                   	push   %ecx
   12e1c:	50                   	push   %eax
   12e1d:	ff 75 f4             	pushl  -0xc(%ebp)
   12e20:	68 30 af 01 00       	push   $0x1af30
   12e25:	e8 fd e6 ff ff       	call   11527 <cio_printf>
   12e2a:	83 c4 20             	add    $0x20,%esp
	for( block = free_slices; block != NULL; block = block->next ) {
   12e2d:	8b 45 f4             	mov    -0xc(%ebp),%eax
   12e30:	8b 40 04             	mov    0x4(%eax),%eax
   12e33:	89 45 f4             	mov    %eax,-0xc(%ebp)
   12e36:	83 7d f4 00          	cmpl   $0x0,-0xc(%ebp)
   12e3a:	75 c1                	jne    12dfd <km_dump+0x83>
				block->next );
	}

}
   12e3c:	90                   	nop
   12e3d:	8b 5d fc             	mov    -0x4(%ebp),%ebx
   12e40:	c9                   	leave  
   12e41:	c3                   	ret    

00012e42 <km_page_alloc>:
** @param count  Number of contiguous pages desired
**
** @return a pointer to the beginning of the first allocated page,
**         or NULL if no memory is available
*/
void *km_page_alloc( unsigned int count ) {
   12e42:	55                   	push   %ebp
   12e43:	89 e5                	mov    %esp,%ebp
   12e45:	83 ec 28             	sub    $0x28,%esp

	assert( km_initialized );
   12e48:	a1 24 e1 01 00       	mov    0x1e124,%eax
   12e4d:	85 c0                	test   %eax,%eax
   12e4f:	75 3b                	jne    12e8c <km_page_alloc+0x4a>
   12e51:	83 ec 04             	sub    $0x4,%esp
   12e54:	68 6d af 01 00       	push   $0x1af6d
   12e59:	6a 00                	push   $0x0
   12e5b:	68 ee 01 00 00       	push   $0x1ee
   12e60:	68 95 ae 01 00       	push   $0x1ae95
   12e65:	68 98 af 01 00       	push   $0x1af98
   12e6a:	68 9c ae 01 00       	push   $0x1ae9c
   12e6f:	68 00 00 02 00       	push   $0x20000
   12e74:	e8 7e f8 ff ff       	call   126f7 <sprint>
   12e79:	83 c4 20             	add    $0x20,%esp
   12e7c:	83 ec 0c             	sub    $0xc,%esp
   12e7f:	68 00 00 02 00       	push   $0x20000
   12e84:	e8 ee f5 ff ff       	call   12477 <kpanic>
   12e89:	83 c4 10             	add    $0x10,%esp

	// make sure we actually need to do something!
	if( count < 1 ) {
   12e8c:	83 7d 08 00          	cmpl   $0x0,0x8(%ebp)
   12e90:	75 0a                	jne    12e9c <km_page_alloc+0x5a>
		return( NULL );
   12e92:	b8 00 00 00 00       	mov    $0x0,%eax
   12e97:	e9 a9 00 00 00       	jmp    12f45 <km_page_alloc+0x103>
	/*
	** Look for the first entry that is large enough.
	*/

	// pointer to the current block
	Blockinfo *block = free_pages;
   12e9c:	a1 14 e1 01 00       	mov    0x1e114,%eax
   12ea1:	89 45 f4             	mov    %eax,-0xc(%ebp)

	// pointer to where the pointer to the current block is
	Blockinfo **pointer = &free_pages;
   12ea4:	c7 45 f0 14 e1 01 00 	movl   $0x1e114,-0x10(%ebp)

	while( block != NULL && block->pages < count ){
   12eab:	eb 11                	jmp    12ebe <km_page_alloc+0x7c>
		pointer = &block->next;
   12ead:	8b 45 f4             	mov    -0xc(%ebp),%eax
   12eb0:	83 c0 04             	add    $0x4,%eax
   12eb3:	89 45 f0             	mov    %eax,-0x10(%ebp)
		block = *pointer;
   12eb6:	8b 45 f0             	mov    -0x10(%ebp),%eax
   12eb9:	8b 00                	mov    (%eax),%eax
   12ebb:	89 45 f4             	mov    %eax,-0xc(%ebp)
	while( block != NULL && block->pages < count ){
   12ebe:	83 7d f4 00          	cmpl   $0x0,-0xc(%ebp)
   12ec2:	74 0a                	je     12ece <km_page_alloc+0x8c>
   12ec4:	8b 45 f4             	mov    -0xc(%ebp),%eax
   12ec7:	8b 00                	mov    (%eax),%eax
   12ec9:	39 45 08             	cmp    %eax,0x8(%ebp)
   12ecc:	77 df                	ja     12ead <km_page_alloc+0x6b>
	}

	// did we find a big enough block?
	if( block == NULL ){
   12ece:	83 7d f4 00          	cmpl   $0x0,-0xc(%ebp)
   12ed2:	75 07                	jne    12edb <km_page_alloc+0x99>
		// nope!
		return( NULL );
   12ed4:	b8 00 00 00 00       	mov    $0x0,%eax
   12ed9:	eb 6a                	jmp    12f45 <km_page_alloc+0x103>
	}

	// found one!  check the length

	if( block->pages == count ) {
   12edb:	8b 45 f4             	mov    -0xc(%ebp),%eax
   12ede:	8b 00                	mov    (%eax),%eax
   12ee0:	39 45 08             	cmp    %eax,0x8(%ebp)
   12ee3:	75 0d                	jne    12ef2 <km_page_alloc+0xb0>

		// exactly the right size - unlink it from the list

		*pointer = block->next;
   12ee5:	8b 45 f4             	mov    -0xc(%ebp),%eax
   12ee8:	8b 50 04             	mov    0x4(%eax),%edx
   12eeb:	8b 45 f0             	mov    -0x10(%ebp),%eax
   12eee:	89 10                	mov    %edx,(%eax)
   12ef0:	eb 43                	jmp    12f35 <km_page_alloc+0xf3>

		// bigger than we need - carve the amount we need off
		// the beginning of this block

		// remember where this chunk begins
		Blockinfo *chunk = block;
   12ef2:	8b 45 f4             	mov    -0xc(%ebp),%eax
   12ef5:	89 45 ec             	mov    %eax,-0x14(%ebp)

		// how much space will be left over?
		int excess = block->pages - count;
   12ef8:	8b 45 f4             	mov    -0xc(%ebp),%eax
   12efb:	8b 00                	mov    (%eax),%eax
   12efd:	2b 45 08             	sub    0x8(%ebp),%eax
   12f00:	89 45 e8             	mov    %eax,-0x18(%ebp)

		// find the start of the new fragment
		Blockinfo *fragment = (Blockinfo *) ( (uint8_t *) block + P2B(count) );
   12f03:	8b 45 08             	mov    0x8(%ebp),%eax
   12f06:	c1 e0 0c             	shl    $0xc,%eax
   12f09:	89 c2                	mov    %eax,%edx
   12f0b:	8b 45 f4             	mov    -0xc(%ebp),%eax
   12f0e:	01 d0                	add    %edx,%eax
   12f10:	89 45 e4             	mov    %eax,-0x1c(%ebp)

		// set the length and link for the new fragment
		fragment->pages = excess;
   12f13:	8b 55 e8             	mov    -0x18(%ebp),%edx
   12f16:	8b 45 e4             	mov    -0x1c(%ebp),%eax
   12f19:	89 10                	mov    %edx,(%eax)
		fragment->next  = block->next;
   12f1b:	8b 45 f4             	mov    -0xc(%ebp),%eax
   12f1e:	8b 50 04             	mov    0x4(%eax),%edx
   12f21:	8b 45 e4             	mov    -0x1c(%ebp),%eax
   12f24:	89 50 04             	mov    %edx,0x4(%eax)

		// replace this chunk with the fragment
		*pointer = fragment;
   12f27:	8b 45 f0             	mov    -0x10(%ebp),%eax
   12f2a:	8b 55 e4             	mov    -0x1c(%ebp),%edx
   12f2d:	89 10                	mov    %edx,(%eax)

		// return this chunk
		block = chunk;
   12f2f:	8b 45 ec             	mov    -0x14(%ebp),%eax
   12f32:	89 45 f4             	mov    %eax,-0xc(%ebp)
	}

	// fix the count of available pages
	n_pages -= count;;
   12f35:	a1 1c e1 01 00       	mov    0x1e11c,%eax
   12f3a:	2b 45 08             	sub    0x8(%ebp),%eax
   12f3d:	a3 1c e1 01 00       	mov    %eax,0x1e11c

	return( block );
   12f42:	8b 45 f4             	mov    -0xc(%ebp),%eax
}
   12f45:	c9                   	leave  
   12f46:	c3                   	ret    

00012f47 <km_page_free>:
** CRITICAL NOTE:  multi-page blocks must be freed one page
** at a time OR freed using km_page_free_multi()!
**
** @param block   Pointer to the page to be returned to the free list
*/
void km_page_free( void *block ) {
   12f47:	55                   	push   %ebp
   12f48:	89 e5                	mov    %esp,%ebp
   12f4a:	83 ec 08             	sub    $0x8,%esp

	/*
	** Don't do anything if the address is NULL.
	*/
	if( block == NULL ){
   12f4d:	83 7d 08 00          	cmpl   $0x0,0x8(%ebp)
   12f51:	74 12                	je     12f65 <km_page_free+0x1e>
		return;
	}

	km_page_free_multi( block, 1 );
   12f53:	83 ec 08             	sub    $0x8,%esp
   12f56:	6a 01                	push   $0x1
   12f58:	ff 75 08             	pushl  0x8(%ebp)
   12f5b:	e8 08 00 00 00       	call   12f68 <km_page_free_multi>
   12f60:	83 c4 10             	add    $0x10,%esp
   12f63:	eb 01                	jmp    12f66 <km_page_free+0x1f>
		return;
   12f65:	90                   	nop
}
   12f66:	c9                   	leave  
   12f67:	c3                   	ret    

00012f68 <km_page_free_multi>:
** accepts a pointer to a multi-page block of memory.
**
** @param block   Pointer to the block to be returned to the free list
** @param count   Number of pages in the block
*/
void km_page_free_multi( void *block, uint32_t count ) {
   12f68:	55                   	push   %ebp
   12f69:	89 e5                	mov    %esp,%ebp
   12f6b:	83 ec 18             	sub    $0x18,%esp
	Blockinfo *used;
	Blockinfo *prev;
	Blockinfo *curr;

	assert( km_initialized );
   12f6e:	a1 24 e1 01 00       	mov    0x1e124,%eax
   12f73:	85 c0                	test   %eax,%eax
   12f75:	75 3b                	jne    12fb2 <km_page_free_multi+0x4a>
   12f77:	83 ec 04             	sub    $0x4,%esp
   12f7a:	68 6d af 01 00       	push   $0x1af6d
   12f7f:	6a 00                	push   $0x0
   12f81:	68 57 02 00 00       	push   $0x257
   12f86:	68 95 ae 01 00       	push   $0x1ae95
   12f8b:	68 a8 af 01 00       	push   $0x1afa8
   12f90:	68 9c ae 01 00       	push   $0x1ae9c
   12f95:	68 00 00 02 00       	push   $0x20000
   12f9a:	e8 58 f7 ff ff       	call   126f7 <sprint>
   12f9f:	83 c4 20             	add    $0x20,%esp
   12fa2:	83 ec 0c             	sub    $0xc,%esp
   12fa5:	68 00 00 02 00       	push   $0x20000
   12faa:	e8 c8 f4 ff ff       	call   12477 <kpanic>
   12faf:	83 c4 10             	add    $0x10,%esp

	/*
	** Don't do anything if the address is NULL.
	*/
	if( block == NULL ){
   12fb2:	83 7d 08 00          	cmpl   $0x0,0x8(%ebp)
   12fb6:	0f 84 e3 00 00 00    	je     1309f <km_page_free_multi+0x137>
		return;
	}

	used = (Blockinfo *) block;
   12fbc:	8b 45 08             	mov    0x8(%ebp),%eax
   12fbf:	89 45 f4             	mov    %eax,-0xc(%ebp)
	used->pages = count;
   12fc2:	8b 45 f4             	mov    -0xc(%ebp),%eax
   12fc5:	8b 55 0c             	mov    0xc(%ebp),%edx
   12fc8:	89 10                	mov    %edx,(%eax)

	/*
	** Advance through the list until current and previous
	** straddle the place where the new block should be inserted.
	*/
	prev = NULL;
   12fca:	c7 45 f0 00 00 00 00 	movl   $0x0,-0x10(%ebp)
	curr = free_pages;
   12fd1:	a1 14 e1 01 00       	mov    0x1e114,%eax
   12fd6:	89 45 ec             	mov    %eax,-0x14(%ebp)

	while( curr != NULL && curr < used ){
   12fd9:	eb 0f                	jmp    12fea <km_page_free_multi+0x82>
		prev = curr;
   12fdb:	8b 45 ec             	mov    -0x14(%ebp),%eax
   12fde:	89 45 f0             	mov    %eax,-0x10(%ebp)
		curr = curr->next;
   12fe1:	8b 45 ec             	mov    -0x14(%ebp),%eax
   12fe4:	8b 40 04             	mov    0x4(%eax),%eax
   12fe7:	89 45 ec             	mov    %eax,-0x14(%ebp)
	while( curr != NULL && curr < used ){
   12fea:	83 7d ec 00          	cmpl   $0x0,-0x14(%ebp)
   12fee:	74 08                	je     12ff8 <km_page_free_multi+0x90>
   12ff0:	8b 45 ec             	mov    -0x14(%ebp),%eax
   12ff3:	3b 45 f4             	cmp    -0xc(%ebp),%eax
   12ff6:	72 e3                	jb     12fdb <km_page_free_multi+0x73>

	/*
	** If this is not the first block in the resulting list,
	** we may need to merge it with its predecessor.
	*/
	if( prev != NULL ){
   12ff8:	83 7d f0 00          	cmpl   $0x0,-0x10(%ebp)
   12ffc:	74 44                	je     13042 <km_page_free_multi+0xda>

		// There is a predecessor.  Check to see if we need to merge.
		if( adjacent( prev, used ) ){
   12ffe:	8b 45 f0             	mov    -0x10(%ebp),%eax
